

Microchip Technology PIC18 LITE Macro Assembler V1.32 build 58300 
                                                                                               Thu Sep 18 10:09:54 2014

Microchip Technology Omniscient Code Generator (Lite mode) build 58300
     1                           	processor	18F46J50
     2                           	fnconf	param0,??,?,0
     3                           	opt	pw 120
     4                           	opt	lm
     5                           	psect	nvBANK0,global,class=BANK0,space=1,delta=1
     6                           	psect	cinit,global,reloc=2,class=CODE,delta=1
     7                           	psect	bssCOMRAM,global,class=COMRAM,space=1,delta=1
     8                           	psect	bssBANK0,global,class=BANK0,space=1,delta=1
     9                           	psect	bssBANK1,global,class=BANK1,space=1,delta=1
    10                           	psect	cstackBANK1,global,class=BANK1,space=1,delta=1
    11                           	psect	cstackBANK0,global,class=BANK0,space=1,delta=1
    12                           	psect	cstackCOMRAM,global,class=COMRAM,space=1,delta=1
    13                           	psect	text0,global,reloc=2,class=CODE,delta=1
    14                           	psect	text1,global,reloc=2,class=CODE,delta=1
    15                           	psect	text2,global,reloc=2,class=CODE,delta=1
    16                           	psect	text3,global,reloc=2,class=CODE,delta=1
    17                           	psect	text4,global,reloc=2,class=CODE,delta=1
    18                           	psect	text5,global,reloc=2,class=CODE,delta=1
    19                           	psect	text6,global,reloc=2,class=CODE,delta=1
    20                           	psect	text7,global,reloc=2,class=CODE,delta=1
    21                           	psect	text8,global,reloc=2,class=CODE,delta=1
    22                           	psect	text9,global,reloc=2,class=CODE,delta=1
    23                           	psect	text10,global,reloc=2,class=CODE,delta=1
    24                           	psect	text11,global,reloc=2,class=CODE,delta=1
    25                           	psect	text12,global,reloc=2,class=CODE,delta=1
    26                           	psect	text13,global,reloc=2,class=CODE,delta=1
    27                           	psect	text14,global,reloc=2,class=CODE,delta=1
    28                           	psect	text15,global,reloc=2,class=CODE,delta=1
    29                           	psect	text16,global,reloc=2,class=CODE,delta=1
    30                           	psect	text17,global,reloc=2,class=CODE,delta=1
    31                           	psect	text18,global,reloc=2,class=CODE,delta=1
    32                           	psect	text19,global,reloc=2,class=CODE,delta=1
    33                           	psect	text20,global,reloc=2,class=CODE,delta=1
    34                           	psect	text21,global,reloc=2,class=CODE,delta=1
    35                           	psect	text22,global,reloc=2,class=CODE,delta=1
    36                           	psect	text23,global,reloc=2,class=CODE,delta=1
    37                           	psect	text24,global,reloc=2,class=CODE,delta=1
    38                           	psect	intcodelo,global,reloc=2,class=CODE,delta=1
    39                           	psect	text26,global,reloc=2,class=CODE,delta=1
    40                           	psect	text27,global,reloc=2,class=CODE,delta=1
    41                           	psect	text28,global,reloc=2,class=CODE,delta=1
    42                           	psect	text29,global,reloc=2,class=CODE,delta=1
    43                           	psect	text30,global,reloc=2,class=CODE,delta=1
    44                           	psect	text31,global,reloc=2,class=CODE,delta=1
    45                           	psect	text32,global,reloc=2,class=CODE,delta=1
    46                           	psect	text33,global,reloc=2,class=CODE,delta=1
    47                           	psect	text34,global,reloc=2,class=CODE,delta=1
    48                           	psect	intcode,global,reloc=2,class=CODE,delta=1
    49                           	psect	intcode_body,global,reloc=2,class=CODE,delta=1
    50                           	psect	text36,global,reloc=2,class=CODE,delta=1
    51                           	psect	text37,global,reloc=2,class=CODE,delta=1
    52                           	psect	text38,global,reloc=2,class=CODE,delta=1
    53                           	psect	text39,global,reloc=2,class=CODE,delta=1
    54                           	psect	text40,global,reloc=2,class=CODE,delta=1
    55                           	psect	text41,global,reloc=2,class=CODE,delta=1
    56                           	psect	text42,global,reloc=2,class=CODE,delta=1
    57                           	psect	text43,global,reloc=2,class=CODE,delta=1
    58                           	psect	text44,global,reloc=2,class=CODE,delta=1
    59                           	psect	text45,global,reloc=2,class=CODE,delta=1
    60                           	psect	text46,global,reloc=2,class=CODE,delta=1
    61                           	psect	text47,global,reloc=2,class=CODE,delta=1
    62                           	psect	text48,global,reloc=2,class=CODE,delta=1
    63                           	psect	text49,global,reloc=2,class=CODE,delta=1
    64                           	psect	intsave_regs,global,class=BIGRAM,space=1,delta=1
    65                           	psect	param0,global,class=BANK0,space=1,delta=1
    66  0000                     _BAUDCONbits	set	3966
    67  0000                     _INTCONbits	set	4082
    68  0000                     _IPR1bits	set	3999
    69  0000                     _LATB	set	3978
    70  0000                     _LATD	set	3980
    71  0000                     _LATDbits	set	3980
    72  0000                     _OSCCON	set	4051
    73  0000                     _OSCCONbits	set	4051
    74  0000                     _OSCTUNEbits	set	3995
    75  0000                     _PIE1bits	set	3997
    76  0000                     _PIR1bits	set	3998
    77  0000                     _PORTBbits	set	3969
    78  0000                     _RCONbits	set	4048
    79  0000                     _RCREG1	set	4015
    80  0000                     _RCSTA1bits	set	4012
    81  0000                     _SPBRG1	set	4016
    82  0000                     _SPBRGH1	set	3967
    83  0000                     _SSPADD	set	4040
    84  0000                     _SSPBUF	set	4041
    85  0000                     _SSPCON1	set	4038
    86  0000                     _SSPCON1bits	set	4038
    87  0000                     _SSPCON2	set	4037
    88  0000                     _SSPCON2bits	set	4037
    89  0000                     _SSPSTAT	set	4039
    90  0000                     _SSPSTATbits	set	4039
    91  0000                     _T0CON	set	4053
    92  0000                     _T0CONbits	set	4053
    93  0000                     _T1CON	set	4045
    94  0000                     _T1CONbits	set	4045
    95  0000                     _T1GCON	set	3994
    96  0000                     _T1GCONbits	set	3994
    97  0000                     _TMR0H	set	4055
    98  0000                     _TMR0L	set	4054
    99  0000                     _TMR1H	set	4047
   100  0000                     _TMR1L	set	4046
   101  0000                     _TRISB	set	3987
   102  0000                     _TRISBbits	set	3987
   103  0000                     _TRISCbits	set	3988
   104  0000                     _TRISD	set	3989
   105  0000                     _TXREG1	set	4014
   106  0000                     _TXSTA1bits	set	4013
   107                           
   108                           	psect	nvBANK0
   109  0000CF                     __pnvBANK0:
   110                           	opt stack 0
   111  0000CF                     _ic_ptr:
   112                           	opt stack 0
   113  0000CF                     	ds	2
   114                           
   115                           ; #config settings
   116  0000                     
   117                           	psect	cinit
   118  001654                     __pcinit:
   119                           	opt stack 0
   120  001654                     start_initialization:
   121                           	opt stack 0
   122  001654                     __initialization:
   123                           	opt stack 0
   124                           
   125                           ; Clear objects allocated to BANK1 (162 bytes)
   126  001654  EE01  F000         	lfsr	0,__pbssBANK1
   127  001658  0EA2               	movlw	162
   128  00165A                     clear_0:
   129  00165A  6AEE               	clrf	postinc0,c
   130  00165C  06E8               	decf	wreg,f,c
   131  00165E  E1FD               	bnz	clear_0
   132                           
   133                           ; Clear objects allocated to BANK0 (61 bytes)
   134  001660  EE00  F060         	lfsr	0,__pbssBANK0
   135  001664  0E3D               	movlw	61
   136  001666                     clear_1:
   137  001666  6AEE               	clrf	postinc0,c
   138  001668  06E8               	decf	wreg,f,c
   139  00166A  E1FD               	bnz	clear_1
   140                           
   141                           ; Clear objects allocated to COMRAM (8 bytes)
   142  00166C  EE00  F02E         	lfsr	0,__pbssCOMRAM
   143  001670  0E08               	movlw	8
   144  001672                     clear_2:
   145  001672  6AEE               	clrf	postinc0,c
   146  001674  06E8               	decf	wreg,f,c
   147  001676  E1FD               	bnz	clear_2
   148  001678                     end_of_initialization:
   149                           	opt stack 0
   150  001678                     __end_of__initialization:
   151                           	opt stack 0
   152  001678  0E00               	movlw	low (__Lmediumconst shr (0+16))
   153  00167A  6EF8               	movwf	tblptru,c
   154  00167C  0100               	movlb	0
   155  00167E  EF23  F003         	goto	_main	;jump to C main() function
   156                           tblptru	equ	0xFF8
   157                           postinc0	equ	0xFEE
   158                           wreg	equ	0xFE8
   159                           
   160                           	psect	bssCOMRAM
   161  00002E                     __pbssCOMRAM:
   162                           	opt stack 0
   163  00002E                     _MQ_Main_Willing_to_block:
   164                           	opt stack 0
   165  00002E                     	ds	1
   166  00002F                     _uart_send_buffer:
   167                           	opt stack 0
   168  00002F                     	ds	7
   169                           tblptru	equ	0xFF8
   170                           postinc0	equ	0xFEE
   171                           wreg	equ	0xFE8
   172                           
   173                           	psect	bssBANK0
   174  000060                     __pbssBANK0:
   175                           	opt stack 0
   176  000060                     _ToMainLow_MQ:
   177                           	opt stack 0
   178  000060                     	ds	54
   179  000096                     _uart_receive_buffer:
   180                           	opt stack 0
   181  000096                     	ds	7
   182                           tblptru	equ	0xFF8
   183                           postinc0	equ	0xFEE
   184                           wreg	equ	0xFE8
   185                           
   186                           	psect	bssBANK1
   187  000100                     __pbssBANK1:
   188                           	opt stack 0
   189  000100                     _FromMainHigh_MQ:
   190                           	opt stack 0
   191  000100                     	ds	54
   192  000136                     _FromMainLow_MQ:
   193                           	opt stack 0
   194  000136                     	ds	54
   195  00016C                     _ToMainHigh_MQ:
   196                           	opt stack 0
   197  00016C                     	ds	54
   198                           tblptru	equ	0xFF8
   199                           postinc0	equ	0xFEE
   200                           wreg	equ	0xFE8
   201                           
   202                           	psect	cstackBANK1
   203  0001A2                     __pcstackBANK1:
   204                           	opt stack 0
   205  0001A2                     ?_uart_receive_buffer_empty:
   206                           	opt stack 0
   207  0001A2                     ?___lwmod:
   208                           	opt stack 0
   209  0001A2                     i2c_configure_slave@addr:
   210                           	opt stack 0
   211  0001A2                     uart_send_byte@sendByte:
   212                           	opt stack 0
   213  0001A2                     uart_get_byte@return_value:
   214                           	opt stack 0
   215  0001A2                     OpenTimer0@config:
   216                           	opt stack 0
   217  0001A2                     OpenTimer1@config1:
   218                           	opt stack 0
   219  0001A2                     init_queue@qptr:
   220                           	opt stack 0
   221  0001A2                     start_i2c_slave_reply@msg:
   222                           	opt stack 0
   223  0001A2                     init_i2c@ic:
   224                           	opt stack 0
   225  0001A2                     timer0_lthread@tptr:
   226                           	opt stack 0
   227  0001A2                     init_timer1_lthread@tptr:
   228                           	opt stack 0
   229  0001A2                     uart_lthread@uptr:
   230                           	opt stack 0
   231  0001A2                     ___lwmod@dividend:
   232                           	opt stack 0
   233  0001A2                     memcpy@d1:
   234                           	opt stack 0
   235                           
   236                           ; 2 bytes @ 0x0
   237  0001A2                     	ds	1
   238  0001A3                     ??_OpenTimer1:
   239                           
   240                           ; 0 bytes @ 0x1
   241  0001A3                     	ds	1
   242  0001A4                     ??_start_i2c_slave_reply:
   243  0001A4                     init_queue@i:
   244                           	opt stack 0
   245  0001A4                     OpenTimer1@config:
   246                           	opt stack 0
   247  0001A4                     timer0_lthread@msgtype:
   248                           	opt stack 0
   249  0001A4                     uart_lthread@msgtype:
   250                           	opt stack 0
   251  0001A4                     ___lwmod@divisor:
   252                           	opt stack 0
   253  0001A4                     memcpy@s1:
   254                           	opt stack 0
   255                           
   256                           ; 2 bytes @ 0x2
   257  0001A4                     	ds	1
   258  0001A5                     
   259                           ; 0 bytes @ 0x3
   260  0001A5                     	ds	1
   261  0001A6                     start_i2c_slave_reply@length:
   262                           	opt stack 0
   263  0001A6                     ___lwmod@counter:
   264                           	opt stack 0
   265  0001A6                     timer0_lthread@length:
   266                           	opt stack 0
   267  0001A6                     uart_lthread@length:
   268                           	opt stack 0
   269  0001A6                     memcpy@n:
   270                           	opt stack 0
   271                           
   272                           ; 2 bytes @ 0x4
   273  0001A6                     	ds	2
   274  0001A8                     timer0_lthread@msgbuffer:
   275                           	opt stack 0
   276  0001A8                     uart_lthread@msgbuffer:
   277                           	opt stack 0
   278  0001A8                     memcpy@d:
   279                           	opt stack 0
   280                           
   281                           ; 2 bytes @ 0x6
   282  0001A8                     	ds	2
   283  0001AA                     timer0_lthread@msgval:
   284                           	opt stack 0
   285  0001AA                     memcpy@s:
   286                           	opt stack 0
   287                           
   288                           ; 2 bytes @ 0x8
   289  0001AA                     	ds	2
   290  0001AC                     send_msg@qptr:
   291                           	opt stack 0
   292  0001AC                     recv_msg@qptr:
   293                           	opt stack 0
   294                           
   295                           ; 2 bytes @ 0xA
   296  0001AC                     	ds	2
   297  0001AE                     send_msg@length:
   298                           	opt stack 0
   299  0001AE                     recv_msg@maxlength:
   300                           	opt stack 0
   301                           
   302                           ; 1 bytes @ 0xC
   303  0001AE                     	ds	1
   304  0001AF                     send_msg@msgtype:
   305                           	opt stack 0
   306  0001AF                     recv_msg@msgtype:
   307                           	opt stack 0
   308                           
   309                           ; 2 bytes @ 0xD
   310  0001AF                     	ds	1
   311  0001B0                     send_msg@data:
   312                           	opt stack 0
   313                           
   314                           ; 2 bytes @ 0xE
   315  0001B0                     	ds	1
   316  0001B1                     recv_msg@data:
   317                           	opt stack 0
   318                           
   319                           ; 2 bytes @ 0xF
   320  0001B1                     	ds	1
   321  0001B2                     ??_send_msg:
   322                           
   323                           ; 0 bytes @ 0x10
   324  0001B2                     	ds	1
   325  0001B3                     ??_recv_msg:
   326  0001B3                     send_msg@tlength:
   327                           	opt stack 0
   328                           
   329                           ; 2 bytes @ 0x11
   330  0001B3                     	ds	2
   331  0001B5                     send_msg@slot:
   332                           	opt stack 0
   333  0001B5                     recv_msg@slot:
   334                           	opt stack 0
   335                           
   336                           ; 1 bytes @ 0x13
   337  0001B5                     	ds	1
   338  0001B6                     send_msg@qmsg:
   339                           	opt stack 0
   340  0001B6                     recv_msg@tlength:
   341                           	opt stack 0
   342                           
   343                           ; 2 bytes @ 0x14
   344  0001B6                     	ds	2
   345  0001B8                     FromMainHigh_sendmsg@msgtype:
   346                           	opt stack 0
   347  0001B8                     recv_msg@qmsg:
   348                           	opt stack 0
   349                           
   350                           ; 2 bytes @ 0x16
   351  0001B8                     	ds	1
   352  0001B9                     FromMainHigh_sendmsg@data:
   353                           	opt stack 0
   354                           
   355                           ; 2 bytes @ 0x17
   356  0001B9                     	ds	1
   357  0001BA                     ToMainLow_recvmsg@msgtype:
   358                           	opt stack 0
   359  0001BA                     ToMainHigh_recvmsg@msgtype:
   360                           	opt stack 0
   361                           
   362                           ; 2 bytes @ 0x18
   363  0001BA                     	ds	1
   364  0001BB                     FromMainHigh_sendmsg@length:
   365                           	opt stack 0
   366                           
   367                           ; 1 bytes @ 0x19
   368  0001BB                     	ds	1
   369  0001BC                     ToMainLow_recvmsg@data:
   370                           	opt stack 0
   371  0001BC                     ToMainHigh_recvmsg@data:
   372                           	opt stack 0
   373  0001BC                     timer1_lthread@tptr:
   374                           	opt stack 0
   375                           
   376                           ; 2 bytes @ 0x1A
   377  0001BC                     	ds	2
   378  0001BE                     ToMainLow_recvmsg@maxlength:
   379                           	opt stack 0
   380  0001BE                     ToMainHigh_recvmsg@maxlength:
   381                           	opt stack 0
   382  0001BE                     timer1_lthread@msgtype:
   383                           	opt stack 0
   384                           
   385                           ; 2 bytes @ 0x1C
   386  0001BE                     	ds	2
   387  0001C0                     timer1_lthread@length:
   388                           	opt stack 0
   389                           
   390                           ; 2 bytes @ 0x1E
   391  0001C0                     	ds	2
   392  0001C2                     timer1_lthread@msgbuffer:
   393                           	opt stack 0
   394                           
   395                           ; 2 bytes @ 0x20
   396  0001C2                     	ds	2
   397  0001C4                     timer1_lthread@retval:
   398                           	opt stack 0
   399                           
   400                           ; 1 bytes @ 0x22
   401  0001C4                     	ds	1
   402  0001C5                     main@alex_counter:
   403                           	opt stack 0
   404                           
   405                           ; 1 bytes @ 0x23
   406  0001C5                     	ds	1
   407  0001C6                     main@msgbuffer:
   408                           	opt stack 0
   409                           
   410                           ; 11 bytes @ 0x24
   411  0001C6                     	ds	11
   412  0001D1                     main@uthread_data:
   413                           	opt stack 0
   414                           
   415                           ; 2 bytes @ 0x2F
   416  0001D1                     	ds	2
   417  0001D3                     main@t0thread_data:
   418                           	opt stack 0
   419                           
   420                           ; 2 bytes @ 0x31
   421  0001D3                     	ds	2
   422  0001D5                     main@last_reg_recvd:
   423                           	opt stack 0
   424                           
   425                           ; 1 bytes @ 0x33
   426  0001D5                     	ds	1
   427  0001D6                     main@myByte2:
   428                           	opt stack 0
   429                           
   430                           ; 1 bytes @ 0x34
   431  0001D6                     	ds	1
   432  0001D7                     main@myByte3:
   433                           	opt stack 0
   434                           
   435                           ; 1 bytes @ 0x35
   436  0001D7                     	ds	1
   437  0001D8                     main@myByte1:
   438                           	opt stack 0
   439                           
   440                           ; 1 bytes @ 0x36
   441  0001D8                     	ds	1
   442  0001D9                     main@t1thread_data:
   443                           	opt stack 0
   444                           
   445                           ; 2 bytes @ 0x37
   446  0001D9                     	ds	2
   447  0001DB                     main@msgtype:
   448                           	opt stack 0
   449                           
   450                           ; 1 bytes @ 0x39
   451  0001DB                     	ds	1
   452  0001DC                     main@length:
   453                           	opt stack 0
   454                           
   455                           ; 1 bytes @ 0x3A
   456  0001DC                     	ds	1
   457  0001DD                     main@ic:
   458                           	opt stack 0
   459                           
   460                           ; 28 bytes @ 0x3B
   461  0001DD                     	ds	28
   462                           tblptru	equ	0xFF8
   463                           postinc0	equ	0xFEE
   464                           wreg	equ	0xFE8
   465                           
   466                           	psect	cstackBANK0
   467  00009D                     __pcstackBANK0:
   468                           	opt stack 0
   469  00009D                     ?_in_high_int:
   470                           	opt stack 0
   471  00009D                     handle_start@data_read:
   472                           	opt stack 0
   473  00009D                     check_msg@qptr:
   474                           	opt stack 0
   475  00009D                     WriteTimer0@timer0:
   476                           	opt stack 0
   477  00009D                     i2memcpy@d1:
   478                           	opt stack 0
   479                           
   480                           ; 2 bytes @ 0x0
   481  00009D                     	ds	2
   482  00009F                     ??_check_msg:
   483  00009F                     ?_in_low_int:
   484                           	opt stack 0
   485  00009F                     WriteTimer0@timer:
   486                           	opt stack 0
   487  00009F                     i2memcpy@s1:
   488                           	opt stack 0
   489                           
   490                           ; 2 bytes @ 0x2
   491  00009F                     	ds	2
   492  0000A1                     i2memcpy@n:
   493                           	opt stack 0
   494                           
   495                           ; 2 bytes @ 0x4
   496  0000A1                     	ds	2
   497  0000A3                     i2memcpy@d:
   498                           	opt stack 0
   499                           
   500                           ; 2 bytes @ 0x6
   501  0000A3                     	ds	2
   502  0000A5                     i2memcpy@s:
   503                           	opt stack 0
   504                           
   505                           ; 2 bytes @ 0x8
   506  0000A5                     	ds	2
   507  0000A7                     i2send_msg@qptr:
   508                           	opt stack 0
   509  0000A7                     i2recv_msg@qptr:
   510                           	opt stack 0
   511                           
   512                           ; 2 bytes @ 0xA
   513  0000A7                     	ds	2
   514  0000A9                     i2send_msg@length:
   515                           	opt stack 0
   516  0000A9                     i2recv_msg@maxlength:
   517                           	opt stack 0
   518                           
   519                           ; 1 bytes @ 0xC
   520  0000A9                     	ds	1
   521  0000AA                     i2send_msg@msgtype:
   522                           	opt stack 0
   523  0000AA                     i2recv_msg@msgtype:
   524                           	opt stack 0
   525                           
   526                           ; 2 bytes @ 0xD
   527  0000AA                     	ds	1
   528  0000AB                     i2send_msg@data:
   529                           	opt stack 0
   530                           
   531                           ; 2 bytes @ 0xE
   532  0000AB                     	ds	1
   533  0000AC                     i2recv_msg@data:
   534                           	opt stack 0
   535                           
   536                           ; 2 bytes @ 0xF
   537  0000AC                     	ds	1
   538  0000AD                     ??i2_send_msg:
   539                           
   540                           ; 0 bytes @ 0x10
   541  0000AD                     	ds	1
   542  0000AE                     ??i2_recv_msg:
   543  0000AE                     i2send_msg@tlength:
   544                           	opt stack 0
   545                           
   546                           ; 2 bytes @ 0x11
   547  0000AE                     	ds	2
   548  0000B0                     i2send_msg@slot:
   549                           	opt stack 0
   550  0000B0                     i2recv_msg@slot:
   551                           	opt stack 0
   552                           
   553                           ; 1 bytes @ 0x13
   554  0000B0                     	ds	1
   555  0000B1                     i2send_msg@qmsg:
   556                           	opt stack 0
   557  0000B1                     i2recv_msg@tlength:
   558                           	opt stack 0
   559                           
   560                           ; 2 bytes @ 0x14
   561  0000B1                     	ds	2
   562  0000B3                     ToMainHigh_sendmsg@msgtype:
   563                           	opt stack 0
   564  0000B3                     i2recv_msg@qmsg:
   565                           	opt stack 0
   566                           
   567                           ; 2 bytes @ 0x16
   568  0000B3                     	ds	1
   569  0000B4                     ToMainHigh_sendmsg@data:
   570                           	opt stack 0
   571                           
   572                           ; 2 bytes @ 0x17
   573  0000B4                     	ds	1
   574  0000B5                     FromMainHigh_recvmsg@msgtype:
   575                           	opt stack 0
   576                           
   577                           ; 2 bytes @ 0x18
   578  0000B5                     	ds	1
   579  0000B6                     ToMainHigh_sendmsg@length:
   580                           	opt stack 0
   581                           
   582                           ; 1 bytes @ 0x19
   583  0000B6                     	ds	1
   584  0000B7                     ??_i2c_int_handler:
   585  0000B7                     FromMainHigh_recvmsg@data:
   586                           	opt stack 0
   587                           
   588                           ; 2 bytes @ 0x1A
   589  0000B7                     	ds	1
   590  0000B8                     i2c_int_handler@error_buf:
   591                           	opt stack 0
   592                           
   593                           ; 3 bytes @ 0x1B
   594  0000B8                     	ds	1
   595  0000B9                     FromMainHigh_recvmsg@maxlength:
   596                           	opt stack 0
   597                           
   598                           ; 1 bytes @ 0x1C
   599  0000B9                     	ds	1
   600  0000BA                     timer0_int_handler@length:
   601                           	opt stack 0
   602                           
   603                           ; 2 bytes @ 0x1D
   604  0000BA                     	ds	1
   605  0000BB                     i2c_int_handler@data_written:
   606                           	opt stack 0
   607                           
   608                           ; 1 bytes @ 0x1E
   609  0000BB                     	ds	1
   610  0000BC                     i2c_int_handler@overrun_error:
   611                           	opt stack 0
   612  0000BC                     timer0_int_handler@msgtype:
   613                           	opt stack 0
   614                           
   615                           ; 2 bytes @ 0x1F
   616  0000BC                     	ds	1
   617  0000BD                     i2c_int_handler@i2c_data:
   618                           	opt stack 0
   619                           
   620                           ; 1 bytes @ 0x20
   621  0000BD                     	ds	1
   622  0000BE                     i2c_int_handler@msg_to_send:
   623                           	opt stack 0
   624  0000BE                     timer0_int_handler@val:
   625                           	opt stack 0
   626                           
   627                           ; 2 bytes @ 0x21
   628  0000BE                     	ds	1
   629  0000BF                     i2c_int_handler@msg_ready:
   630                           	opt stack 0
   631                           
   632                           ; 1 bytes @ 0x22
   633  0000BF                     	ds	1
   634  0000C0                     i2c_int_handler@data_read:
   635                           	opt stack 0
   636                           
   637                           ; 1 bytes @ 0x23
   638  0000C0                     	ds	1
   639  0000C1                     ??_InterruptHandlerHigh:
   640                           
   641                           ; 0 bytes @ 0x24
   642  0000C1                     	ds	14
   643                           tblptru	equ	0xFF8
   644                           postinc0	equ	0xFEE
   645                           wreg	equ	0xFE8
   646                           
   647                           	psect	cstackCOMRAM
   648  000001                     __pcstackCOMRAM:
   649                           	opt stack 0
   650  000001                     ?_uart_send_buffer_empty:
   651                           	opt stack 0
   652  000001                     ?_ReadTimer1:
   653                           	opt stack 0
   654  000001                     WriteTimer1@timer1:
   655                           	opt stack 0
   656  000001                     i1memcpy@d1:
   657                           	opt stack 0
   658                           
   659                           ; 2 bytes @ 0x0
   660  000001                     	ds	2
   661  000003                     ReadTimer1@timer:
   662                           	opt stack 0
   663  000003                     WriteTimer1@timer:
   664                           	opt stack 0
   665  000003                     i1memcpy@s1:
   666                           	opt stack 0
   667                           
   668                           ; 2 bytes @ 0x2
   669  000003                     	ds	2
   670  000005                     i1memcpy@n:
   671                           	opt stack 0
   672                           
   673                           ; 2 bytes @ 0x4
   674  000005                     	ds	2
   675  000007                     i1memcpy@d:
   676                           	opt stack 0
   677                           
   678                           ; 2 bytes @ 0x6
   679  000007                     	ds	2
   680  000009                     i1memcpy@s:
   681                           	opt stack 0
   682                           
   683                           ; 2 bytes @ 0x8
   684  000009                     	ds	2
   685  00000B                     i1send_msg@qptr:
   686                           	opt stack 0
   687                           
   688                           ; 2 bytes @ 0xA
   689  00000B                     	ds	2
   690  00000D                     i1send_msg@length:
   691                           	opt stack 0
   692                           
   693                           ; 1 bytes @ 0xC
   694  00000D                     	ds	1
   695  00000E                     i1send_msg@msgtype:
   696                           	opt stack 0
   697                           
   698                           ; 1 bytes @ 0xD
   699  00000E                     	ds	1
   700  00000F                     i1send_msg@data:
   701                           	opt stack 0
   702                           
   703                           ; 2 bytes @ 0xE
   704  00000F                     	ds	2
   705  000011                     ??i1_send_msg:
   706                           
   707                           ; 0 bytes @ 0x10
   708  000011                     	ds	1
   709  000012                     i1send_msg@tlength:
   710                           	opt stack 0
   711                           
   712                           ; 2 bytes @ 0x11
   713  000012                     	ds	2
   714  000014                     i1send_msg@slot:
   715                           	opt stack 0
   716                           
   717                           ; 1 bytes @ 0x13
   718  000014                     	ds	1
   719  000015                     i1send_msg@qmsg:
   720                           	opt stack 0
   721                           
   722                           ; 2 bytes @ 0x14
   723  000015                     	ds	2
   724  000017                     ToMainLow_sendmsg@msgtype:
   725                           	opt stack 0
   726                           
   727                           ; 1 bytes @ 0x16
   728  000017                     	ds	1
   729  000018                     ToMainLow_sendmsg@data:
   730                           	opt stack 0
   731                           
   732                           ; 2 bytes @ 0x17
   733  000018                     	ds	2
   734  00001A                     ToMainLow_sendmsg@length:
   735                           	opt stack 0
   736                           
   737                           ; 1 bytes @ 0x19
   738  00001A                     	ds	1
   739  00001B                     timer1_int_handler@result:
   740                           	opt stack 0
   741                           
   742                           ; 2 bytes @ 0x1A
   743  00001B                     	ds	2
   744  00001D                     ??_InterruptHandlerLow:
   745                           
   746                           ; 0 bytes @ 0x1C
   747  00001D                     	ds	17
   748                           tblptru	equ	0xFF8
   749                           postinc0	equ	0xFEE
   750                           wreg	equ	0xFE8
   751                           
   752 ;;
   753 ;;Main: autosize = 0, tempsize = 0, incstack = 0, save=0
   754 ;;
   755 ;; *************** function _main *****************
   756 ;; Defined at:
   757 ;;		line 187 in file "../src/main.c"
   758 ;; Parameters:    Size  Location     Type
   759 ;;		None
   760 ;; Auto vars:     Size  Location     Type
   761 ;;  ic             28   59[BANK1 ] struct __i2c_comm
   762 ;;  msgbuffer      11   36[BANK1 ] unsigned char [11]
   763 ;;  t1thread_dat    2   55[BANK1 ] struct __timer1_thread_s
   764 ;;  t0thread_dat    2   49[BANK1 ] struct __timer0_thread_s
   765 ;;  uthread_data    2   47[BANK1 ] struct __uart_thread_str
   766 ;;  length          1   58[BANK1 ] char 
   767 ;;  msgtype         1   57[BANK1 ] unsigned char 
   768 ;;  myByte1         1   54[BANK1 ] unsigned char 
   769 ;;  myByte3         1   53[BANK1 ] unsigned char 
   770 ;;  myByte2         1   52[BANK1 ] unsigned char 
   771 ;;  last_reg_rec    1   51[BANK1 ] unsigned char 
   772 ;;  alex_counter    1   35[BANK1 ] unsigned char 
   773 ;;  i               1    0        unsigned char 
   774 ;;  c               1    0        unsigned char 
   775 ;; Return value:  Size  Location     Type
   776 ;;		None               void
   777 ;; Registers used:
   778 ;;		wreg, fsr1l, fsr1h, fsr2l, fsr2h, status,2, status,0, prodl, prodh, cstack
   779 ;; Tracked objects:
   780 ;;		On entry : 0/0
   781 ;;		On exit  : 0/0
   782 ;;		Unchanged: 0/0
   783 ;; Data sizes:     COMRAM   BANK0   BANK1   BANK2   BANK3   BANK4   BANK5   BANK6   BANK7   BANK8   BANK9  BANK10  BANK1
      +1  BANK12  BANK13  BANK14
   784 ;;      Params:         0       0       0       0       0       0       0       0       0       0       0       0       
      +0       0       0       0
   785 ;;      Locals:         0       0      52       0       0       0       0       0       0       0       0       0       
      +0       0       0       0
   786 ;;      Temps:          0       0       0       0       0       0       0       0       0       0       0       0       
      +0       0       0       0
   787 ;;      Totals:         0       0      52       0       0       0       0       0       0       0       0       0       
      +0       0       0       0
   788 ;;Total ram usage:       52 bytes
   789 ;; Hardware stack levels required when called:   14
   790 ;; This function calls:
   791 ;;		_OpenTimer0
   792 ;;		_OpenTimer1
   793 ;;		_ToMainHigh_recvmsg
   794 ;;		_ToMainLow_recvmsg
   795 ;;		_blip
   796 ;;		_enable_interrupts
   797 ;;		_i2c_configure_slave
   798 ;;		_init_i2c
   799 ;;		_init_queues
   800 ;;		_init_timer1_lthread
   801 ;;		_start_i2c_slave_reply
   802 ;;		_timer0_lthread
   803 ;;		_timer1_lthread
   804 ;;		_uart_configure
   805 ;;		_uart_get_byte
   806 ;;		_uart_lthread
   807 ;;		_uart_receive_buffer_empty
   808 ;;		_uart_send_byte
   809 ;; This function is called by:
   810 ;;		Startup code after reset
   811 ;; This function uses a non-reentrant model
   812 ;;
   813                           
   814                           	psect	text0
   815  000646                     __ptext0:
   816                           	opt stack 0
   817  000646                     _main:
   818                           	opt stack 17
   819                           
   820                           ;main.c: 188: char c;
   821                           ;main.c: 189: signed char length;
   822                           ;main.c: 190: unsigned char msgtype;
   823                           ;main.c: 191: unsigned char last_reg_recvd;
   824                           ;main.c: 193: i2c_comm ic;
   825                           ;main.c: 194: unsigned char msgbuffer[10 + 1];
   826                           ;main.c: 195: unsigned char i;
   827                           ;main.c: 196: uart_thread_struct uthread_data;
   828                           ;main.c: 197: timer1_thread_struct t1thread_data;
   829                           ;main.c: 198: timer0_thread_struct t0thread_data;
   830                           ;main.c: 199: char alex_counter = 0;
   831                           
   832                           ;incstack = 0
   833  000646  0E00               	movlw	0
   834  000648  0101               	movlb	1	; () banked
   835  00064A  6FC5               	movwf	main@alex_counter& (0+255),b
   836                           
   837                           ;main.c: 215: OSCCON = 0xE0;
   838  00064C  0EE0               	movlw	224
   839  00064E  6ED3               	movwf	4051,c	;volatile
   840                           
   841                           ; BSR set to: 1
   842                           ;main.c: 223: OSCTUNEbits.PLLEN = 1;
   843  000650  8C9B               	bsf	3995,6,c	;volatile
   844                           
   845                           ; BSR set to: 1
   846                           ;main.c: 238: init_i2c(&ic);
   847  000652  0101               	movlb	1	; () banked
   848  000654  0E01               	movlw	high main@ic
   849  000656  0101               	movlb	1	; () banked
   850  000658  6FA3               	movwf	(init_i2c@ic+1)& (0+255),b
   851  00065A  0101               	movlb	1	; () banked
   852  00065C  0EDD               	movlw	low main@ic
   853  00065E  0101               	movlb	1	; () banked
   854  000660  6FA2               	movwf	init_i2c@ic& (0+255),b
   855  000662  EC6A  F008         	call	_init_i2c	;wreg free
   856                           
   857                           ;main.c: 241: init_timer1_lthread(&t1thread_data);
   858  000666  0101               	movlb	1	; () banked
   859  000668  0E01               	movlw	high main@t1thread_data
   860  00066A  0101               	movlb	1	; () banked
   861  00066C  6FA3               	movwf	(init_timer1_lthread@tptr+1)& (0+255),b
   862  00066E  0101               	movlb	1	; () banked
   863  000670  0ED9               	movlw	low main@t1thread_data
   864  000672  0101               	movlb	1	; () banked
   865  000674  6FA2               	movwf	init_timer1_lthread@tptr& (0+255),b
   866  000676  ECDB  F00B         	call	_init_timer1_lthread	;wreg free
   867                           
   868                           ;main.c: 244: init_queues();
   869  00067A  EC5F  F009         	call	_init_queues	;wreg free
   870                           
   871                           ;main.c: 248: TRISB = 0x0;
   872  00067E  0E00               	movlw	0
   873  000680  6E93               	movwf	3987,c	;volatile
   874                           
   875                           ;main.c: 249: LATB = 0x0;
   876  000682  0E00               	movlw	0
   877  000684  6E8A               	movwf	3978,c	;volatile
   878                           
   879                           ;main.c: 262: OpenTimer0(0b11111111 & 0b10111111 & 0b11011111 & 0b11110110);
   880  000686  0E96               	movlw	150
   881  000688  EC98  F00B         	call	_OpenTimer0
   882                           
   883                           ;main.c: 269: OpenTimer1(0b11111111 & 0b10011111 & 0b11111111 & 0b11111111 & 0b11111011 
      +                          & 0b11111111,0x0);
   884  00068C  0E00               	movlw	0
   885  00068E  0101               	movlb	1	; () banked
   886  000690  6FA2               	movwf	OpenTimer1@config1& (0+255),b
   887  000692  0E9B               	movlw	155
   888  000694  EC39  F00A         	call	_OpenTimer1
   889                           
   890                           ;main.c: 278: IPR1bits.TMR1IP = 0;
   891  000698  909F               	bcf	3999,0,c	;volatile
   892                           
   893                           ;main.c: 280: IPR1bits.RCIP = 0;
   894  00069A  9A9F               	bcf	3999,5,c	;volatile
   895                           
   896                           ;main.c: 283: IPR1bits.SSPIP = 1;
   897  00069C  869F               	bsf	3999,3,c	;volatile
   898                           
   899                           ;main.c: 292: i2c_configure_slave(0x9E);
   900  00069E  0E9E               	movlw	158
   901  0006A0  EC84  F00B         	call	_i2c_configure_slave
   902                           
   903                           ;main.c: 307: PIE1bits.SSPIE = 1;
   904  0006A4  869D               	bsf	3997,3,c	;volatile
   905                           
   906                           ;main.c: 333: TRISD = 0x00;
   907  0006A6  0E00               	movlw	0
   908  0006A8  6E95               	movwf	3989,c	;volatile
   909                           
   910                           ;main.c: 343: enable_interrupts();
   911  0006AA  EC0E  F00C         	call	_enable_interrupts	;wreg free
   912                           
   913                           ;main.c: 356: uart_configure();
   914  0006AE  EC34  F008         	call	_uart_configure	;wreg free
   915                           
   916                           ;main.c: 359: unsigned char myByte1;
   917                           ;main.c: 360: unsigned char myByte2;
   918                           ;main.c: 361: unsigned char myByte3;
   919                           ;main.c: 363: uart_send_byte( 0x55 );
   920  0006B2  0E55               	movlw	85
   921  0006B4  ECDF  F00A         	call	_uart_send_byte
   922                           
   923                           ;main.c: 364: uart_send_byte( 0x56 );
   924  0006B8  0E56               	movlw	86
   925  0006BA  ECDF  F00A         	call	_uart_send_byte
   926                           
   927                           ;main.c: 365: uart_send_byte( 0x57 );
   928  0006BE  0E57               	movlw	87
   929  0006C0  ECDF  F00A         	call	_uart_send_byte
   930  0006C4                     l3448:
   931  0006C4  ECAB  F00B         	call	_uart_receive_buffer_empty	;wreg free
   932  0006C8  0101               	movlb	1	; () banked
   933  0006CA  51A3               	movf	(?_uart_receive_buffer_empty+1)& (0+255),w,b
   934  0006CC  0101               	movlb	1	; () banked
   935  0006CE  11A2               	iorwf	?_uart_receive_buffer_empty& (0+255),w,b
   936  0006D0  A4D8               	btfss	status,2,c
   937  0006D2  D7F8               	goto	l3448
   938                           
   939                           ; BSR set to: 1
   940                           ;main.c: 370: }
   941                           ;main.c: 371: myByte1 = uart_get_byte();
   942                           
   943                           ; BSR set to: 1
   944  0006D4  ECDA  F009         	call	_uart_get_byte	;wreg free
   945  0006D8  0101               	movlb	1	; () banked
   946  0006DA  6FD8               	movwf	main@myByte1& (0+255),b
   947                           
   948                           ; BSR set to: 1
   949                           ;main.c: 372: if(myByte1 == 0x55)
   950  0006DC  0101               	movlb	1	; () banked
   951  0006DE  51D8               	movf	main@myByte1& (0+255),w,b
   952  0006E0  0A55               	xorlw	85
   953  0006E2  B4D8               	btfsc	status,2,c
   954                           
   955                           ; BSR set to: 1
   956                           ;main.c: 373: {
   957                           ;main.c: 374: blip();
   958  0006E4  EC12  F00C         	call	_blip	;wreg free
   959  0006E8                     l3456:
   960  0006E8  ECAB  F00B         	call	_uart_receive_buffer_empty	;wreg free
   961  0006EC  0101               	movlb	1	; () banked
   962  0006EE  51A3               	movf	(?_uart_receive_buffer_empty+1)& (0+255),w,b
   963  0006F0  0101               	movlb	1	; () banked
   964  0006F2  11A2               	iorwf	?_uart_receive_buffer_empty& (0+255),w,b
   965  0006F4  A4D8               	btfss	status,2,c
   966  0006F6  D7F8               	goto	l3456
   967                           
   968                           ; BSR set to: 1
   969                           ;main.c: 380: }
   970                           ;main.c: 381: myByte2 = uart_get_byte();
   971                           
   972                           ; BSR set to: 1
   973  0006F8  ECDA  F009         	call	_uart_get_byte	;wreg free
   974  0006FC  0101               	movlb	1	; () banked
   975  0006FE  6FD6               	movwf	main@myByte2& (0+255),b
   976                           
   977                           ; BSR set to: 1
   978                           ;main.c: 382: if(myByte2 == 0x56)
   979  000700  0101               	movlb	1	; () banked
   980  000702  51D6               	movf	main@myByte2& (0+255),w,b
   981  000704  0A56               	xorlw	86
   982  000706  B4D8               	btfsc	status,2,c
   983                           
   984                           ; BSR set to: 1
   985                           ;main.c: 383: {
   986                           ;main.c: 384: blip();
   987  000708  EC12  F00C         	call	_blip	;wreg free
   988  00070C                     l3464:
   989  00070C  ECAB  F00B         	call	_uart_receive_buffer_empty	;wreg free
   990  000710  0101               	movlb	1	; () banked
   991  000712  51A3               	movf	(?_uart_receive_buffer_empty+1)& (0+255),w,b
   992  000714  0101               	movlb	1	; () banked
   993  000716  11A2               	iorwf	?_uart_receive_buffer_empty& (0+255),w,b
   994  000718  A4D8               	btfss	status,2,c
   995  00071A  D7F8               	goto	l3464
   996                           
   997                           ; BSR set to: 1
   998                           ;main.c: 390: }
   999                           ;main.c: 391: myByte3 = uart_get_byte();
  1000                           
  1001                           ; BSR set to: 1
  1002  00071C  ECDA  F009         	call	_uart_get_byte	;wreg free
  1003  000720  0101               	movlb	1	; () banked
  1004  000722  6FD7               	movwf	main@myByte3& (0+255),b
  1005                           
  1006                           ; BSR set to: 1
  1007                           ;main.c: 392: if(myByte3 == 0x57)
  1008  000724  0101               	movlb	1	; () banked
  1009  000726  51D7               	movf	main@myByte3& (0+255),w,b
  1010  000728  0A57               	xorlw	87
  1011  00072A  B4D8               	btfsc	status,2,c
  1012                           
  1013                           ; BSR set to: 1
  1014                           ;main.c: 393: {
  1015                           ;main.c: 394: blip();
  1016  00072C  EC12  F00C         	call	_blip	;wreg free
  1017  000730                     l3472:
  1018                           
  1019                           ;main.c: 425: length = ToMainHigh_recvmsg(10, &msgtype, (void *) msgbuffer);
  1020  000730  0101               	movlb	1	; () banked
  1021  000732  0E01               	movlw	high main@msgtype
  1022  000734  0101               	movlb	1	; () banked
  1023  000736  6FBB               	movwf	(ToMainHigh_recvmsg@msgtype+1)& (0+255),b
  1024  000738  0101               	movlb	1	; () banked
  1025  00073A  0EDB               	movlw	low main@msgtype
  1026  00073C  0101               	movlb	1	; () banked
  1027  00073E  6FBA               	movwf	ToMainHigh_recvmsg@msgtype& (0+255),b
  1028  000740  0101               	movlb	1	; () banked
  1029  000742  0E01               	movlw	high main@msgbuffer
  1030  000744  0101               	movlb	1	; () banked
  1031  000746  6FBD               	movwf	(ToMainHigh_recvmsg@data+1)& (0+255),b
  1032  000748  0101               	movlb	1	; () banked
  1033  00074A  0EC6               	movlw	low main@msgbuffer
  1034  00074C  0101               	movlb	1	; () banked
  1035  00074E  6FBC               	movwf	ToMainHigh_recvmsg@data& (0+255),b
  1036  000750  0E0A               	movlw	10
  1037  000752  EC8F  F00A         	call	_ToMainHigh_recvmsg
  1038  000756  0101               	movlb	1	; () banked
  1039  000758  6FDC               	movwf	main@length& (0+255),b
  1040                           
  1041                           ; BSR set to: 1
  1042                           ;main.c: 426: if (length < 0) {
  1043  00075A  0101               	movlb	1	; () banked
  1044  00075C  BFDC               	btfsc	main@length& (0+255),7,b
  1045  00075E  D05D               	goto	l3498
  1046  000760  D04E               	goto	l3496
  1047  000762                     l3478:
  1048                           
  1049                           ; BSR set to: 1
  1050                           ;main.c: 436: {
  1051                           ;main.c: 437: timer0_lthread(&t0thread_data, msgtype, length, msgbuffer);
  1052  000762  0101               	movlb	1	; () banked
  1053  000764  0E01               	movlw	high main@t0thread_data
  1054  000766  0101               	movlb	1	; () banked
  1055  000768  6FA3               	movwf	(timer0_lthread@tptr+1)& (0+255),b
  1056  00076A  0101               	movlb	1	; () banked
  1057  00076C  0ED3               	movlw	low main@t0thread_data
  1058  00076E  0101               	movlb	1	; () banked
  1059  000770  6FA2               	movwf	timer0_lthread@tptr& (0+255),b
  1060  000772  0101               	movlb	1	; () banked
  1061  000774  C1DB  F1A4         	movff	main@msgtype,timer0_lthread@msgtype
  1062  000778  0101               	movlb	1	; () banked
  1063  00077A  6BA5               	clrf	(timer0_lthread@msgtype+1)& (0+255),b
  1064  00077C  0101               	movlb	1	; () banked
  1065  00077E  51DC               	movf	main@length& (0+255),w,b
  1066  000780  0101               	movlb	1	; () banked
  1067  000782  6FA6               	movwf	timer0_lthread@length& (0+255),b
  1068  000784  0101               	movlb	1	; () banked
  1069  000786  6BA7               	clrf	(timer0_lthread@length+1)& (0+255),b
  1070  000788  0101               	movlb	1	; () banked
  1071  00078A  BFA6               	btfsc	timer0_lthread@length& (0+255),7,b
  1072  00078C  07A7               	decf	(timer0_lthread@length+1)& (0+255),f,b
  1073  00078E  0101               	movlb	1	; () banked
  1074  000790  0E01               	movlw	high main@msgbuffer
  1075  000792  0101               	movlb	1	; () banked
  1076  000794  6FA9               	movwf	(timer0_lthread@msgbuffer+1)& (0+255),b
  1077  000796  0101               	movlb	1	; () banked
  1078  000798  0EC6               	movlw	low main@msgbuffer
  1079  00079A  0101               	movlb	1	; () banked
  1080  00079C  6FA8               	movwf	timer0_lthread@msgbuffer& (0+255),b
  1081  00079E  EC07  F00C         	call	_timer0_lthread	;wreg free
  1082                           
  1083                           ;main.c: 438: break;
  1084  0007A2  D03B               	goto	l3498
  1085  0007A4                     l138:
  1086                           
  1087                           ;main.c: 441: case 41:
  1088                           ;main.c: 442: {
  1089                           ;main.c: 445: last_reg_recvd = msgbuffer[0];
  1090  0007A4  C1C6  F1D5         	movff	main@msgbuffer,main@last_reg_recvd
  1091                           
  1092                           ;main.c: 446: break;
  1093  0007A8  D038               	goto	l3498
  1094  0007AA                     l3480:
  1095                           
  1096                           ;main.c: 459: {
  1097                           ;main.c: 460: length = 1 ;
  1098  0007AA  0E01               	movlw	1
  1099  0007AC  0101               	movlb	1	; () banked
  1100  0007AE  6FDC               	movwf	main@length& (0+255),b
  1101                           
  1102                           ; BSR set to: 1
  1103                           ;main.c: 461: msgbuffer[0] = myByte1;
  1104  0007B0  C1D8  F1C6         	movff	main@myByte1,main@msgbuffer
  1105                           
  1106                           ;main.c: 462: break;
  1107  0007B4  D017               	goto	l3492
  1108  0007B6                     l3484:
  1109                           
  1110                           ; BSR set to: 1
  1111                           ;main.c: 465: {
  1112                           ;main.c: 467: length = 1;
  1113  0007B6  0E01               	movlw	1
  1114  0007B8  0101               	movlb	1	; () banked
  1115  0007BA  6FDC               	movwf	main@length& (0+255),b
  1116                           
  1117                           ;main.c: 468: msgbuffer[0] = 0x3A;
  1118  0007BC  0E3A               	movlw	58
  1119  0007BE  D004               	goto	L1
  1120  0007C0                     l3486:
  1121                           
  1122                           ; BSR set to: 1
  1123                           ;main.c: 473: {
  1124                           ;main.c: 474: length = 1;
  1125  0007C0  0E01               	movlw	1
  1126  0007C2  0101               	movlb	1	; () banked
  1127  0007C4  6FDC               	movwf	main@length& (0+255),b
  1128                           
  1129                           ;main.c: 475: msgbuffer[0] = 0x55;
  1130  0007C6  0E55               	movlw	85
  1131  0007C8                     L1:
  1132  0007C8  0101               	movlb	1	; () banked
  1133  0007CA  6FC6               	movwf	main@msgbuffer& (0+255),b
  1134                           
  1135                           ;main.c: 476: break;
  1136  0007CC  D00B               	goto	l3492
  1137  0007CE                     l3490:
  1138  0007CE  0101               	movlb	1	; () banked
  1139  0007D0  51D5               	movf	main@last_reg_recvd& (0+255),w,b
  1140                           
  1141                           ; Switch size 1, requested type "space"
  1142                           ; Number of cases is 3, Range of values is 168 to 170
  1143                           ; switch strategies available:
  1144                           ; Name         Instructions Cycles
  1145                           ; simple_byte           10     6 (average)
  1146                           ;	Chosen strategy is simple_byte
  1147  0007D2  0AA8               	xorlw	168	; case 168
  1148  0007D4  B4D8               	btfsc	status,2,c
  1149  0007D6  D7EF               	goto	l3484
  1150  0007D8  0A01               	xorlw	1	; case 169
  1151  0007DA  B4D8               	btfsc	status,2,c
  1152  0007DC  D7F1               	goto	l3486
  1153  0007DE  0A03               	xorlw	3	; case 170
  1154  0007E0  B4D8               	btfsc	status,2,c
  1155  0007E2  D7E3               	goto	l3480
  1156  0007E4                     l3492:
  1157                           
  1158                           ; BSR set to: 1
  1159                           ;main.c: 480: start_i2c_slave_reply(length, msgbuffer);
  1160  0007E4  0101               	movlb	1	; () banked
  1161  0007E6  0E01               	movlw	high main@msgbuffer
  1162  0007E8  0101               	movlb	1	; () banked
  1163  0007EA  6FA3               	movwf	(start_i2c_slave_reply@msg+1)& (0+255),b
  1164  0007EC  0101               	movlb	1	; () banked
  1165  0007EE  0EC6               	movlw	low main@msgbuffer
  1166  0007F0  0101               	movlb	1	; () banked
  1167  0007F2  6FA2               	movwf	start_i2c_slave_reply@msg& (0+255),b
  1168  0007F4  0101               	movlb	1	; () banked
  1169  0007F6  51DC               	movf	main@length& (0+255),w,b
  1170  0007F8  EC92  F005         	call	_start_i2c_slave_reply
  1171                           
  1172                           ;main.c: 481: break;
  1173  0007FC  D00E               	goto	l3498
  1174  0007FE                     l3496:
  1175  0007FE  0101               	movlb	1	; () banked
  1176  000800  51DB               	movf	main@msgtype& (0+255),w,b
  1177                           
  1178                           ; Switch size 1, requested type "space"
  1179                           ; Number of cases is 4, Range of values is 10 to 42
  1180                           ; switch strategies available:
  1181                           ; Name         Instructions Cycles
  1182                           ; simple_byte           13     7 (average)
  1183                           ;	Chosen strategy is simple_byte
  1184  000802  0A0A               	xorlw	10	; case 10
  1185  000804  B4D8               	btfsc	status,2,c
  1186  000806  D7AD               	goto	l3478
  1187  000808  0A22               	xorlw	34	; case 40
  1188  00080A  B4D8               	btfsc	status,2,c
  1189  00080C  D7CB               	goto	l138
  1190  00080E  0A01               	xorlw	1	; case 41
  1191  000810  B4D8               	btfsc	status,2,c
  1192  000812  D7C8               	goto	l138
  1193  000814  0A03               	xorlw	3	; case 42
  1194  000816  B4D8               	btfsc	status,2,c
  1195  000818  D7DA               	goto	l3490
  1196  00081A                     l3498:
  1197                           
  1198                           ;main.c: 489: }
  1199                           ;main.c: 492: length = ToMainLow_recvmsg(10, &msgtype, (void *) msgbuffer);
  1200  00081A  0101               	movlb	1	; () banked
  1201  00081C  0E01               	movlw	high main@msgtype
  1202  00081E  0101               	movlb	1	; () banked
  1203  000820  6FBB               	movwf	(ToMainLow_recvmsg@msgtype+1)& (0+255),b
  1204  000822  0101               	movlb	1	; () banked
  1205  000824  0EDB               	movlw	low main@msgtype
  1206  000826  0101               	movlb	1	; () banked
  1207  000828  6FBA               	movwf	ToMainLow_recvmsg@msgtype& (0+255),b
  1208  00082A  0101               	movlb	1	; () banked
  1209  00082C  0E01               	movlw	high main@msgbuffer
  1210  00082E  0101               	movlb	1	; () banked
  1211  000830  6FBD               	movwf	(ToMainLow_recvmsg@data+1)& (0+255),b
  1212  000832  0101               	movlb	1	; () banked
  1213  000834  0EC6               	movlw	low main@msgbuffer
  1214  000836  0101               	movlb	1	; () banked
  1215  000838  6FBC               	movwf	ToMainLow_recvmsg@data& (0+255),b
  1216  00083A  0E0A               	movlw	10
  1217  00083C  EC74  F00A         	call	_ToMainLow_recvmsg
  1218  000840  0101               	movlb	1	; () banked
  1219  000842  6FDC               	movwf	main@length& (0+255),b
  1220                           
  1221                           ; BSR set to: 1
  1222                           ;main.c: 493: if (length < 0) {
  1223  000844  0101               	movlb	1	; () banked
  1224  000846  BFDC               	btfsc	main@length& (0+255),7,b
  1225  000848  D773               	goto	l3472
  1226  00084A  D042               	goto	l3510
  1227  00084C                     l3504:
  1228                           
  1229                           ; BSR set to: 1
  1230                           ;main.c: 504: {
  1231                           ;main.c: 505: timer1_lthread(&t1thread_data, msgtype, length, msgbuffer);
  1232  00084C  0101               	movlb	1	; () banked
  1233  00084E  0E01               	movlw	high main@t1thread_data
  1234  000850  0101               	movlb	1	; () banked
  1235  000852  6FBD               	movwf	(timer1_lthread@tptr+1)& (0+255),b
  1236  000854  0101               	movlb	1	; () banked
  1237  000856  0ED9               	movlw	low main@t1thread_data
  1238  000858  0101               	movlb	1	; () banked
  1239  00085A  6FBC               	movwf	timer1_lthread@tptr& (0+255),b
  1240  00085C  0101               	movlb	1	; () banked
  1241  00085E  C1DB  F1BE         	movff	main@msgtype,timer1_lthread@msgtype
  1242  000862  0101               	movlb	1	; () banked
  1243  000864  6BBF               	clrf	(timer1_lthread@msgtype+1)& (0+255),b
  1244  000866  0101               	movlb	1	; () banked
  1245  000868  51DC               	movf	main@length& (0+255),w,b
  1246  00086A  0101               	movlb	1	; () banked
  1247  00086C  6FC0               	movwf	timer1_lthread@length& (0+255),b
  1248  00086E  0101               	movlb	1	; () banked
  1249  000870  6BC1               	clrf	(timer1_lthread@length+1)& (0+255),b
  1250  000872  0101               	movlb	1	; () banked
  1251  000874  BFC0               	btfsc	timer1_lthread@length& (0+255),7,b
  1252  000876  07C1               	decf	(timer1_lthread@length+1)& (0+255),f,b
  1253  000878  0101               	movlb	1	; () banked
  1254  00087A  0E01               	movlw	high main@msgbuffer
  1255  00087C  0101               	movlb	1	; () banked
  1256  00087E  6FC3               	movwf	(timer1_lthread@msgbuffer+1)& (0+255),b
  1257  000880  0101               	movlb	1	; () banked
  1258  000882  0EC6               	movlw	low main@msgbuffer
  1259  000884  0101               	movlb	1	; () banked
  1260  000886  6FC2               	movwf	timer1_lthread@msgbuffer& (0+255),b
  1261  000888  EC01  F009         	call	_timer1_lthread	;wreg free
  1262                           
  1263                           ;main.c: 506: break;
  1264  00088C  D751               	goto	l3472
  1265  00088E                     l3506:
  1266                           
  1267                           ;main.c: 509: case 31:
  1268                           ;main.c: 510: {
  1269                           ;main.c: 511: uart_lthread(&uthread_data, msgtype, length, msgbuffer);
  1270  00088E  0101               	movlb	1	; () banked
  1271  000890  0E01               	movlw	high main@uthread_data
  1272  000892  0101               	movlb	1	; () banked
  1273  000894  6FA3               	movwf	(uart_lthread@uptr+1)& (0+255),b
  1274  000896  0101               	movlb	1	; () banked
  1275  000898  0ED1               	movlw	low main@uthread_data
  1276  00089A  0101               	movlb	1	; () banked
  1277  00089C  6FA2               	movwf	uart_lthread@uptr& (0+255),b
  1278  00089E  0101               	movlb	1	; () banked
  1279  0008A0  C1DB  F1A4         	movff	main@msgtype,uart_lthread@msgtype
  1280  0008A4  0101               	movlb	1	; () banked
  1281  0008A6  6BA5               	clrf	(uart_lthread@msgtype+1)& (0+255),b
  1282  0008A8  0101               	movlb	1	; () banked
  1283  0008AA  51DC               	movf	main@length& (0+255),w,b
  1284  0008AC  0101               	movlb	1	; () banked
  1285  0008AE  6FA6               	movwf	uart_lthread@length& (0+255),b
  1286  0008B0  0101               	movlb	1	; () banked
  1287  0008B2  6BA7               	clrf	(uart_lthread@length+1)& (0+255),b
  1288  0008B4  0101               	movlb	1	; () banked
  1289  0008B6  BFA6               	btfsc	uart_lthread@length& (0+255),7,b
  1290  0008B8  07A7               	decf	(uart_lthread@length+1)& (0+255),f,b
  1291  0008BA  0101               	movlb	1	; () banked
  1292  0008BC  0E01               	movlw	high main@msgbuffer
  1293  0008BE  0101               	movlb	1	; () banked
  1294  0008C0  6FA9               	movwf	(uart_lthread@msgbuffer+1)& (0+255),b
  1295  0008C2  0101               	movlb	1	; () banked
  1296  0008C4  0EC6               	movlw	low main@msgbuffer
  1297  0008C6  0101               	movlb	1	; () banked
  1298  0008C8  6FA8               	movwf	uart_lthread@msgbuffer& (0+255),b
  1299  0008CA  ECF8  F00A         	call	_uart_lthread	;wreg free
  1300                           
  1301                           ;main.c: 512: break;
  1302  0008CE  D730               	goto	l3472
  1303  0008D0                     l3510:
  1304  0008D0  0101               	movlb	1	; () banked
  1305  0008D2  51DB               	movf	main@msgtype& (0+255),w,b
  1306                           
  1307                           ; Switch size 1, requested type "space"
  1308                           ; Number of cases is 3, Range of values is 11 to 31
  1309                           ; switch strategies available:
  1310                           ; Name         Instructions Cycles
  1311                           ; simple_byte           10     6 (average)
  1312                           ;	Chosen strategy is simple_byte
  1313  0008D4  0A0B               	xorlw	11	; case 11
  1314  0008D6  B4D8               	btfsc	status,2,c
  1315  0008D8  D7B9               	goto	l3504
  1316  0008DA  0A15               	xorlw	21	; case 30
  1317  0008DC  B4D8               	btfsc	status,2,c
  1318  0008DE  D7D7               	goto	l3506
  1319  0008E0  0A01               	xorlw	1	; case 31
  1320  0008E2  B4D8               	btfsc	status,2,c
  1321  0008E4  D7D4               	goto	l3506
  1322  0008E6  D724               	goto	l3472
  1323  0008E8                     __end_of_main:
  1324                           	opt stack 0
  1325                           tblptru	equ	0xFF8
  1326                           postinc0	equ	0xFEE
  1327                           wreg	equ	0xFE8
  1328                           status	equ	0xFD8
  1329                           
  1330 ;; *************** function _uart_send_byte *****************
  1331 ;; Defined at:
  1332 ;;		line 54 in file "../src/my_uart.c"
  1333 ;; Parameters:    Size  Location     Type
  1334 ;;  sendByte        1    wreg     unsigned char 
  1335 ;; Auto vars:     Size  Location     Type
  1336 ;;  sendByte        1    0[BANK1 ] unsigned char 
  1337 ;; Return value:  Size  Location     Type
  1338 ;;                  2   93[COMRAM] int 
  1339 ;; Registers used:
  1340 ;;		wreg, fsr2l, fsr2h, status,2, status,0, prodl, prodh
  1341 ;; Tracked objects:
  1342 ;;		On entry : 0/0
  1343 ;;		On exit  : 0/0
  1344 ;;		Unchanged: 0/0
  1345 ;; Data sizes:     COMRAM   BANK0   BANK1   BANK2   BANK3   BANK4   BANK5   BANK6   BANK7   BANK8   BANK9  BANK10  BANK1
      +1  BANK12  BANK13  BANK14
  1346 ;;      Params:         0       0       0       0       0       0       0       0       0       0       0       0       
      +0       0       0       0
  1347 ;;      Locals:         0       0       1       0       0       0       0       0       0       0       0       0       
      +0       0       0       0
  1348 ;;      Temps:          0       0       0       0       0       0       0       0       0       0       0       0       
      +0       0       0       0
  1349 ;;      Totals:         0       0       1       0       0       0       0       0       0       0       0       0       
      +0       0       0       0
  1350 ;;Total ram usage:        1 bytes
  1351 ;; Hardware stack levels used:    1
  1352 ;; Hardware stack levels required when called:   10
  1353 ;; This function calls:
  1354 ;;		Nothing
  1355 ;; This function is called by:
  1356 ;;		_main
  1357 ;; This function uses a non-reentrant model
  1358 ;;
  1359                           
  1360                           	psect	text1
  1361  0015BE                     __ptext1:
  1362                           	opt stack 0
  1363  0015BE                     _uart_send_byte:
  1364                           	opt stack 20
  1365                           
  1366                           ; BSR set to: 1
  1367                           ;incstack = 0
  1368                           ;uart_send_byte@sendByte stored from wreg
  1369  0015BE  0101               	movlb	1	; () banked
  1370  0015C0  6FA2               	movwf	uart_send_byte@sendByte& (0+255),b
  1371                           
  1372                           ; BSR set to: 1
  1373                           ;my_uart.c: 56: if( uart_send_buffer.size >= 4 )
  1374  0015C2  EE20  F035         	lfsr	2,_uart_send_buffer+6
  1375  0015C6  0E03               	movlw	3
  1376  0015C8  64DF               	cpfsgt	indf2,c
  1377  0015CA  D001               	goto	l3314
  1378  0015CC  0012               	return	
  1379  0015CE                     l3314:
  1380                           
  1381                           ; BSR set to: 1
  1382                           ;my_uart.c: 60: else
  1383                           ;my_uart.c: 61: {
  1384                           ;my_uart.c: 62: uart_send_buffer.buffer[ uart_send_buffer.last_item ] = sendByte;
  1385  0015CE  5034               	movf	_uart_send_buffer+5,w,c
  1386  0015D0  0D01               	mullw	1
  1387  0015D2  0E2F               	movlw	low _uart_send_buffer
  1388  0015D4  24F3               	addwf	prodl,w,c
  1389  0015D6  6ED9               	movwf	fsr2l,c
  1390  0015D8  0E00               	movlw	high _uart_send_buffer
  1391  0015DA  20F4               	addwfc	prodh,w,c
  1392  0015DC  6EDA               	movwf	fsr2h,c
  1393  0015DE  0101               	movlb	1	; () banked
  1394  0015E0  C1A2  FFDF         	movff	uart_send_byte@sendByte,indf2
  1395                           
  1396                           ; BSR set to: 1
  1397                           ;my_uart.c: 63: uart_send_buffer.last_item = (uart_send_buffer.last_item + 1) % 4;
  1398  0015E4  2834               	incf	_uart_send_buffer+5,w,c
  1399  0015E6  0B03               	andlw	3
  1400  0015E8  6E34               	movwf	_uart_send_buffer+5,c
  1401                           
  1402                           ; BSR set to: 1
  1403                           ;my_uart.c: 64: uart_send_buffer.size += 1;
  1404  0015EA  2A35               	incf	_uart_send_buffer+6,f,c
  1405                           
  1406                           ; BSR set to: 1
  1407                           ;my_uart.c: 65: PIE1bits.TX1IE = 1;
  1408  0015EC  889D               	bsf	3997,4,c	;volatile
  1409  0015EE  0012               	return	
  1410  0015F0                     __end_of_uart_send_byte:
  1411                           	opt stack 0
  1412                           tblptru	equ	0xFF8
  1413                           prodh	equ	0xFF4
  1414                           prodl	equ	0xFF3
  1415                           postinc0	equ	0xFEE
  1416                           wreg	equ	0xFE8
  1417                           indf2	equ	0xFDF
  1418                           fsr2h	equ	0xFDA
  1419                           fsr2l	equ	0xFD9
  1420                           status	equ	0xFD8
  1421                           
  1422 ;; *************** function _uart_receive_buffer_empty *****************
  1423 ;; Defined at:
  1424 ;;		line 138 in file "../src/my_uart.c"
  1425 ;; Parameters:    Size  Location     Type
  1426 ;;		None
  1427 ;; Auto vars:     Size  Location     Type
  1428 ;;		None
  1429 ;; Return value:  Size  Location     Type
  1430 ;;                  2    0[BANK1 ] int 
  1431 ;; Registers used:
  1432 ;;		wreg, status,2
  1433 ;; Tracked objects:
  1434 ;;		On entry : 0/0
  1435 ;;		On exit  : 0/0
  1436 ;;		Unchanged: 0/0
  1437 ;; Data sizes:     COMRAM   BANK0   BANK1   BANK2   BANK3   BANK4   BANK5   BANK6   BANK7   BANK8   BANK9  BANK10  BANK1
      +1  BANK12  BANK13  BANK14
  1438 ;;      Params:         0       0       2       0       0       0       0       0       0       0       0       0       
      +0       0       0       0
  1439 ;;      Locals:         0       0       0       0       0       0       0       0       0       0       0       0       
      +0       0       0       0
  1440 ;;      Temps:          0       0       0       0       0       0       0       0       0       0       0       0       
      +0       0       0       0
  1441 ;;      Totals:         0       0       2       0       0       0       0       0       0       0       0       0       
      +0       0       0       0
  1442 ;;Total ram usage:        2 bytes
  1443 ;; Hardware stack levels used:    1
  1444 ;; Hardware stack levels required when called:   10
  1445 ;; This function calls:
  1446 ;;		Nothing
  1447 ;; This function is called by:
  1448 ;;		_main
  1449 ;; This function uses a non-reentrant model
  1450 ;;
  1451                           
  1452                           	psect	text2
  1453  001756                     __ptext2:
  1454                           	opt stack 0
  1455  001756                     _uart_receive_buffer_empty:
  1456                           	opt stack 20
  1457                           
  1458                           ;my_uart.c: 140: if( uart_receive_buffer.size == 0 )
  1459                           
  1460                           ; BSR set to: 1
  1461                           ;incstack = 0
  1462  001756  0100               	movlb	0	; () banked
  1463  001758  679C               	tstfsz	(_uart_receive_buffer+6)& (0+255),b
  1464  00175A  D007               	goto	l3332
  1465                           
  1466                           ; BSR set to: 0
  1467                           ;my_uart.c: 141: {
  1468                           ;my_uart.c: 142: return 1;
  1469  00175C  0E00               	movlw	0
  1470  00175E  0101               	movlb	1	; () banked
  1471  001760  6FA3               	movwf	(?_uart_receive_buffer_empty+1)& (0+255),b
  1472  001762  0E01               	movlw	1
  1473  001764  0101               	movlb	1	; () banked
  1474  001766  6FA2               	movwf	?_uart_receive_buffer_empty& (0+255),b
  1475  001768  0012               	return	
  1476  00176A                     l3332:
  1477                           
  1478                           ;my_uart.c: 144: else
  1479                           ;my_uart.c: 145: {
  1480                           ;my_uart.c: 146: return 0;
  1481  00176A  0E00               	movlw	0
  1482  00176C  0101               	movlb	1	; () banked
  1483  00176E  6FA3               	movwf	(?_uart_receive_buffer_empty+1)& (0+255),b
  1484  001770  0E00               	movlw	0
  1485  001772  0101               	movlb	1	; () banked
  1486  001774  6FA2               	movwf	?_uart_receive_buffer_empty& (0+255),b
  1487  001776  0012               	return	
  1488  001778                     __end_of_uart_receive_buffer_empty:
  1489                           	opt stack 0
  1490                           tblptru	equ	0xFF8
  1491                           prodh	equ	0xFF4
  1492                           prodl	equ	0xFF3
  1493                           postinc0	equ	0xFEE
  1494                           wreg	equ	0xFE8
  1495                           indf2	equ	0xFDF
  1496                           fsr2h	equ	0xFDA
  1497                           fsr2l	equ	0xFD9
  1498                           status	equ	0xFD8
  1499                           
  1500 ;; *************** function _uart_lthread *****************
  1501 ;; Defined at:
  1502 ;;		line 9 in file "../src/uart_thread.c"
  1503 ;; Parameters:    Size  Location     Type
  1504 ;;  uptr            2    0[BANK1 ] PTR struct __uart_thread
  1505 ;;		 -> main@uthread_data(2), 
  1506 ;;  msgtype         2    2[BANK1 ] int 
  1507 ;;  length          2    4[BANK1 ] int 
  1508 ;;  msgbuffer       2    6[BANK1 ] PTR unsigned char 
  1509 ;;		 -> main@msgbuffer(11), 
  1510 ;; Auto vars:     Size  Location     Type
  1511 ;;		None
  1512 ;; Return value:  Size  Location     Type
  1513 ;;                  2    0[BANK1 ] int 
  1514 ;; Registers used:
  1515 ;;		wreg, fsr2l, fsr2h, status,2, status,0
  1516 ;; Tracked objects:
  1517 ;;		On entry : 0/0
  1518 ;;		On exit  : 0/0
  1519 ;;		Unchanged: 0/0
  1520 ;; Data sizes:     COMRAM   BANK0   BANK1   BANK2   BANK3   BANK4   BANK5   BANK6   BANK7   BANK8   BANK9  BANK10  BANK1
      +1  BANK12  BANK13  BANK14
  1521 ;;      Params:         0       0       8       0       0       0       0       0       0       0       0       0       
      +0       0       0       0
  1522 ;;      Locals:         0       0       0       0       0       0       0       0       0       0       0       0       
      +0       0       0       0
  1523 ;;      Temps:          0       0       0       0       0       0       0       0       0       0       0       0       
      +0       0       0       0
  1524 ;;      Totals:         0       0       8       0       0       0       0       0       0       0       0       0       
      +0       0       0       0
  1525 ;;Total ram usage:        8 bytes
  1526 ;; Hardware stack levels used:    1
  1527 ;; Hardware stack levels required when called:   10
  1528 ;; This function calls:
  1529 ;;		Nothing
  1530 ;; This function is called by:
  1531 ;;		_main
  1532 ;; This function uses a non-reentrant model
  1533 ;;
  1534                           
  1535                           	psect	text3
  1536  0015F0                     __ptext3:
  1537                           	opt stack 0
  1538  0015F0                     _uart_lthread:
  1539                           	opt stack 20
  1540                           
  1541                           ;uart_thread.c: 10: if (msgtype == 30) {
  1542                           
  1543                           ; BSR set to: 1
  1544                           ;incstack = 0
  1545  0015F0  0101               	movlb	1	; () banked
  1546  0015F2  51A4               	movf	uart_lthread@msgtype& (0+255),w,b
  1547  0015F4  0A1E               	xorlw	30
  1548  0015F6  11A5               	iorwf	(uart_lthread@msgtype+1)& (0+255),w,b
  1549  0015F8  B4D8               	btfsc	status,2,c
  1550  0015FA  0012               	return	
  1551                           
  1552                           ; BSR set to: 1
  1553                           ;uart_thread.c: 12: else if (msgtype == 31) {
  1554                           
  1555                           ; BSR set to: 1
  1556                           
  1557                           ; BSR set to: 1
  1558                           ;uart_thread.c: 11: }
  1559  0015FC  0101               	movlb	1	; () banked
  1560  0015FE  51A4               	movf	uart_lthread@msgtype& (0+255),w,b
  1561  001600  0A1F               	xorlw	31
  1562  001602  11A5               	iorwf	(uart_lthread@msgtype+1)& (0+255),w,b
  1563  001604  A4D8               	btfss	status,2,c
  1564  001606  0012               	return	
  1565                           
  1566                           ; BSR set to: 1
  1567                           ;uart_thread.c: 15: msgbuffer[length] = '\0';
  1568  001608  0101               	movlb	1	; () banked
  1569  00160A  51A6               	movf	uart_lthread@length& (0+255),w,b
  1570  00160C  0101               	movlb	1	; () banked
  1571  00160E  25A8               	addwf	uart_lthread@msgbuffer& (0+255),w,b
  1572  001610  6ED9               	movwf	fsr2l,c
  1573  001612  0101               	movlb	1	; () banked
  1574  001614  51A7               	movf	(uart_lthread@length+1)& (0+255),w,b
  1575  001616  0101               	movlb	1	; () banked
  1576  001618  21A9               	addwfc	(uart_lthread@msgbuffer+1)& (0+255),w,b
  1577  00161A  6EDA               	movwf	fsr2h,c
  1578  00161C  0E00               	movlw	0
  1579  00161E  6EDF               	movwf	indf2,c
  1580  001620  0012               	return	
  1581  001622                     __end_of_uart_lthread:
  1582                           	opt stack 0
  1583                           tblptru	equ	0xFF8
  1584                           prodh	equ	0xFF4
  1585                           prodl	equ	0xFF3
  1586                           postinc0	equ	0xFEE
  1587                           wreg	equ	0xFE8
  1588                           indf2	equ	0xFDF
  1589                           fsr2h	equ	0xFDA
  1590                           fsr2l	equ	0xFD9
  1591                           status	equ	0xFD8
  1592                           
  1593 ;; *************** function _uart_get_byte *****************
  1594 ;; Defined at:
  1595 ;;		line 105 in file "../src/my_uart.c"
  1596 ;; Parameters:    Size  Location     Type
  1597 ;;		None
  1598 ;; Auto vars:     Size  Location     Type
  1599 ;;  return_value    1    0[BANK1 ] unsigned char 
  1600 ;; Return value:  Size  Location     Type
  1601 ;;                  1    wreg      unsigned char 
  1602 ;; Registers used:
  1603 ;;		wreg, fsr2l, fsr2h, status,2, status,0, prodl, prodh
  1604 ;; Tracked objects:
  1605 ;;		On entry : 0/0
  1606 ;;		On exit  : 0/0
  1607 ;;		Unchanged: 0/0
  1608 ;; Data sizes:     COMRAM   BANK0   BANK1   BANK2   BANK3   BANK4   BANK5   BANK6   BANK7   BANK8   BANK9  BANK10  BANK1
      +1  BANK12  BANK13  BANK14
  1609 ;;      Params:         0       0       0       0       0       0       0       0       0       0       0       0       
      +0       0       0       0
  1610 ;;      Locals:         0       0       1       0       0       0       0       0       0       0       0       0       
      +0       0       0       0
  1611 ;;      Temps:          0       0       0       0       0       0       0       0       0       0       0       0       
      +0       0       0       0
  1612 ;;      Totals:         0       0       1       0       0       0       0       0       0       0       0       0       
      +0       0       0       0
  1613 ;;Total ram usage:        1 bytes
  1614 ;; Hardware stack levels used:    1
  1615 ;; Hardware stack levels required when called:   10
  1616 ;; This function calls:
  1617 ;;		Nothing
  1618 ;; This function is called by:
  1619 ;;		_main
  1620 ;; This function uses a non-reentrant model
  1621 ;;
  1622                           
  1623                           	psect	text4
  1624  0013B4                     __ptext4:
  1625                           	opt stack 0
  1626  0013B4                     _uart_get_byte:
  1627                           	opt stack 20
  1628                           
  1629                           ;my_uart.c: 107: if( uart_receive_buffer.size <= 0 )
  1630                           
  1631                           ; BSR set to: 1
  1632                           ;incstack = 0
  1633  0013B4  0100               	movlb	0	; () banked
  1634  0013B6  679C               	tstfsz	(_uart_receive_buffer+6)& (0+255),b
  1635  0013B8  D003               	goto	l3340
  1636                           
  1637                           ; BSR set to: 0
  1638                           ;my_uart.c: 108: {
  1639                           ;my_uart.c: 109: uart_receive_buffer.size = 0;
  1640  0013BA  0E00               	movlw	0
  1641  0013BC  0100               	movlb	0	; () banked
  1642  0013BE  6F9C               	movwf	(_uart_receive_buffer+6)& (0+255),b
  1643  0013C0                     l3340:
  1644                           
  1645                           ; BSR set to: 0
  1646                           ;my_uart.c: 110: }
  1647                           ;my_uart.c: 111: unsigned char return_value = uart_receive_buffer.buffer[uart_receive_bu
      +                          ffer.current_item];
  1648  0013C0  0100               	movlb	0	; () banked
  1649  0013C2  519A               	movf	(_uart_receive_buffer+4)& (0+255),w,b
  1650  0013C4  0D01               	mullw	1
  1651  0013C6  0100               	movlb	0	; () banked
  1652  0013C8  0E96               	movlw	low _uart_receive_buffer
  1653  0013CA  24F3               	addwf	prodl,w,c
  1654  0013CC  6ED9               	movwf	fsr2l,c
  1655  0013CE  0100               	movlb	0	; () banked
  1656  0013D0  0E00               	movlw	high _uart_receive_buffer
  1657  0013D2  20F4               	addwfc	prodh,w,c
  1658  0013D4  6EDA               	movwf	fsr2h,c
  1659  0013D6  50DF               	movf	indf2,w,c
  1660  0013D8  0101               	movlb	1	; () banked
  1661  0013DA  6FA2               	movwf	uart_get_byte@return_value& (0+255),b
  1662                           
  1663                           ; BSR set to: 1
  1664                           ;my_uart.c: 112: uart_receive_buffer.current_item = ( uart_receive_buffer.current_item +
      +                           1 ) % 4;
  1665  0013DC  0100               	movlb	0	; () banked
  1666  0013DE  299A               	incf	(_uart_receive_buffer+4)& (0+255),w,b
  1667  0013E0  0B03               	andlw	3
  1668  0013E2  0100               	movlb	0	; () banked
  1669  0013E4  6F9A               	movwf	(_uart_receive_buffer+4)& (0+255),b
  1670                           
  1671                           ; BSR set to: 0
  1672                           ;my_uart.c: 113: uart_receive_buffer.size -= 1;
  1673  0013E6  0100               	movlb	0	; () banked
  1674  0013E8  079C               	decf	(_uart_receive_buffer+6)& (0+255),f,b
  1675                           
  1676                           ; BSR set to: 0
  1677                           ;my_uart.c: 115: if( PIE1bits.RC1IE == 0 )
  1678  0013EA  AA9D               	btfss	3997,5,c	;volatile
  1679                           
  1680                           ; BSR set to: 0
  1681                           ;my_uart.c: 116: {
  1682                           ;my_uart.c: 117: PIE1bits.RC1IE = 1;
  1683  0013EC  8A9D               	bsf	3997,5,c	;volatile
  1684                           
  1685                           ; BSR set to: 0
  1686                           ;my_uart.c: 118: }
  1687                           ;my_uart.c: 120: return return_value;
  1688                           
  1689                           ; BSR set to: 0
  1690  0013EE  0101               	movlb	1	; () banked
  1691  0013F0  51A2               	movf	uart_get_byte@return_value& (0+255),w,b
  1692  0013F2  0012               	return	
  1693  0013F4                     __end_of_uart_get_byte:
  1694                           	opt stack 0
  1695                           tblptru	equ	0xFF8
  1696                           prodh	equ	0xFF4
  1697                           prodl	equ	0xFF3
  1698                           postinc0	equ	0xFEE
  1699                           wreg	equ	0xFE8
  1700                           indf2	equ	0xFDF
  1701                           fsr2h	equ	0xFDA
  1702                           fsr2l	equ	0xFD9
  1703                           status	equ	0xFD8
  1704                           
  1705 ;; *************** function _uart_configure *****************
  1706 ;; Defined at:
  1707 ;;		line 14 in file "../src/my_uart.c"
  1708 ;; Parameters:    Size  Location     Type
  1709 ;;		None
  1710 ;; Auto vars:     Size  Location     Type
  1711 ;;		None
  1712 ;; Return value:  Size  Location     Type
  1713 ;;		None               void
  1714 ;; Registers used:
  1715 ;;		wreg, fsr2l, fsr2h, status,2, status,0, prodl, prodh
  1716 ;; Tracked objects:
  1717 ;;		On entry : 0/0
  1718 ;;		On exit  : 0/0
  1719 ;;		Unchanged: 0/0
  1720 ;; Data sizes:     COMRAM   BANK0   BANK1   BANK2   BANK3   BANK4   BANK5   BANK6   BANK7   BANK8   BANK9  BANK10  BANK1
      +1  BANK12  BANK13  BANK14
  1721 ;;      Params:         0       0       0       0       0       0       0       0       0       0       0       0       
      +0       0       0       0
  1722 ;;      Locals:         0       0       0       0       0       0       0       0       0       0       0       0       
      +0       0       0       0
  1723 ;;      Temps:          0       0       0       0       0       0       0       0       0       0       0       0       
      +0       0       0       0
  1724 ;;      Totals:         0       0       0       0       0       0       0       0       0       0       0       0       
      +0       0       0       0
  1725 ;;Total ram usage:        0 bytes
  1726 ;; Hardware stack levels used:    1
  1727 ;; Hardware stack levels required when called:   10
  1728 ;; This function calls:
  1729 ;;		Nothing
  1730 ;; This function is called by:
  1731 ;;		_main
  1732 ;; This function uses a non-reentrant model
  1733 ;;
  1734                           
  1735                           	psect	text5
  1736  001068                     __ptext5:
  1737                           	opt stack 0
  1738  001068                     _uart_configure:
  1739                           	opt stack 20
  1740                           
  1741                           ;my_uart.c: 16: TRISCbits.TRISC7 = 1;
  1742                           
  1743                           ; BSR set to: 1
  1744                           ;incstack = 0
  1745  001068  8E94               	bsf	3988,7,c	;volatile
  1746                           
  1747                           ;my_uart.c: 17: TRISCbits.TRISC6 = 0;
  1748  00106A  9C94               	bcf	3988,6,c	;volatile
  1749                           
  1750                           ;my_uart.c: 19: BAUDCONbits.BRG16 = 1;
  1751  00106C  867E               	bsf	3966,3,c	;volatile
  1752                           
  1753                           ;my_uart.c: 20: TXSTA1bits.BRGH = 1;
  1754  00106E  84AD               	bsf	4013,2,c	;volatile
  1755                           
  1756                           ;my_uart.c: 23: SPBRGH1 = 0x00;
  1757  001070  0E00               	movlw	0
  1758  001072  6E7F               	movwf	3967,c	;volatile
  1759                           
  1760                           ;my_uart.c: 24: SPBRG1 = 0xCF;
  1761  001074  0ECF               	movlw	207
  1762  001076  6EB0               	movwf	4016,c	;volatile
  1763                           
  1764                           ;my_uart.c: 26: TXSTA1bits.SYNC = 0;
  1765  001078  98AD               	bcf	4013,4,c	;volatile
  1766                           
  1767                           ;my_uart.c: 27: RCSTA1bits.SPEN = 1;
  1768  00107A  8EAC               	bsf	4012,7,c	;volatile
  1769                           
  1770                           ;my_uart.c: 30: IPR1bits.TX1IP = 0;
  1771  00107C  989F               	bcf	3999,4,c	;volatile
  1772                           
  1773                           ;my_uart.c: 32: PIE1bits.TX1IE = 0;
  1774  00107E  989D               	bcf	3997,4,c	;volatile
  1775                           
  1776                           ;my_uart.c: 33: PIE1bits.RC1IE = 1;
  1777  001080  8A9D               	bsf	3997,5,c	;volatile
  1778                           
  1779                           ;my_uart.c: 35: TXSTA1bits.TXEN = 1;
  1780  001082  8AAD               	bsf	4013,5,c	;volatile
  1781                           
  1782                           ;my_uart.c: 36: RCSTA1bits.CREN = 1;
  1783  001084  88AC               	bsf	4012,4,c	;volatile
  1784                           
  1785                           ;my_uart.c: 40: uart_send_buffer.current_item = 0;
  1786  001086  0E00               	movlw	0
  1787  001088  6E33               	movwf	_uart_send_buffer+4,c
  1788                           
  1789                           ;my_uart.c: 41: uart_send_buffer.last_item = 0;
  1790  00108A  0E00               	movlw	0
  1791  00108C  6E34               	movwf	_uart_send_buffer+5,c
  1792                           
  1793                           ;my_uart.c: 42: uart_send_buffer.buffer[uart_send_buffer.current_item] = 0;
  1794  00108E  5033               	movf	_uart_send_buffer+4,w,c
  1795  001090  0D01               	mullw	1
  1796  001092  0E2F               	movlw	low _uart_send_buffer
  1797  001094  24F3               	addwf	prodl,w,c
  1798  001096  6ED9               	movwf	fsr2l,c
  1799  001098  0E00               	movlw	high _uart_send_buffer
  1800  00109A  20F4               	addwfc	prodh,w,c
  1801  00109C  6EDA               	movwf	fsr2h,c
  1802  00109E  0E00               	movlw	0
  1803  0010A0  6EDF               	movwf	indf2,c
  1804                           
  1805                           ;my_uart.c: 43: uart_send_buffer.size = 0;
  1806  0010A2  0E00               	movlw	0
  1807  0010A4  6E35               	movwf	_uart_send_buffer+6,c
  1808                           
  1809                           ;my_uart.c: 46: uart_receive_buffer.current_item = 0;
  1810  0010A6  0E00               	movlw	0
  1811  0010A8  0100               	movlb	0	; () banked
  1812  0010AA  6F9A               	movwf	(_uart_receive_buffer+4)& (0+255),b
  1813                           
  1814                           ; BSR set to: 0
  1815                           ;my_uart.c: 47: uart_receive_buffer.last_item = 0;
  1816  0010AC  0E00               	movlw	0
  1817  0010AE  0100               	movlb	0	; () banked
  1818  0010B0  6F9B               	movwf	(_uart_receive_buffer+5)& (0+255),b
  1819                           
  1820                           ;my_uart.c: 48: uart_receive_buffer.buffer[uart_receive_buffer.current_item] = 0;
  1821  0010B2  0100               	movlb	0	; () banked
  1822  0010B4  519A               	movf	(_uart_receive_buffer+4)& (0+255),w,b
  1823  0010B6  0D01               	mullw	1
  1824  0010B8  0100               	movlb	0	; () banked
  1825  0010BA  0E96               	movlw	low _uart_receive_buffer
  1826  0010BC  24F3               	addwf	prodl,w,c
  1827  0010BE  6ED9               	movwf	fsr2l,c
  1828  0010C0  0100               	movlb	0	; () banked
  1829  0010C2  0E00               	movlw	high _uart_receive_buffer
  1830  0010C4  20F4               	addwfc	prodh,w,c
  1831  0010C6  6EDA               	movwf	fsr2h,c
  1832  0010C8  0E00               	movlw	0
  1833  0010CA  6EDF               	movwf	indf2,c
  1834                           
  1835                           ; BSR set to: 0
  1836                           ;my_uart.c: 49: uart_receive_buffer.size = 0;
  1837  0010CC  0E00               	movlw	0
  1838  0010CE  0100               	movlb	0	; () banked
  1839  0010D0  6F9C               	movwf	(_uart_receive_buffer+6)& (0+255),b
  1840                           
  1841                           ; BSR set to: 0
  1842  0010D2  0012               	return	
  1843  0010D4                     __end_of_uart_configure:
  1844                           	opt stack 0
  1845                           tblptru	equ	0xFF8
  1846                           prodh	equ	0xFF4
  1847                           prodl	equ	0xFF3
  1848                           postinc0	equ	0xFEE
  1849                           wreg	equ	0xFE8
  1850                           indf2	equ	0xFDF
  1851                           fsr2h	equ	0xFDA
  1852                           fsr2l	equ	0xFD9
  1853                           status	equ	0xFD8
  1854                           
  1855 ;; *************** function _timer1_lthread *****************
  1856 ;; Defined at:
  1857 ;;		line 14 in file "../src/timer1_thread.c"
  1858 ;; Parameters:    Size  Location     Type
  1859 ;;  tptr            2   26[BANK1 ] PTR struct __timer1_thre
  1860 ;;		 -> main@t1thread_data(2), 
  1861 ;;  msgtype         2   28[BANK1 ] int 
  1862 ;;  length          2   30[BANK1 ] int 
  1863 ;;  msgbuffer       2   32[BANK1 ] PTR unsigned char 
  1864 ;;		 -> main@msgbuffer(11), 
  1865 ;; Auto vars:     Size  Location     Type
  1866 ;;  retval          1   34[BANK1 ] char 
  1867 ;; Return value:  Size  Location     Type
  1868 ;;                  2   26[BANK1 ] int 
  1869 ;; Registers used:
  1870 ;;		wreg, fsr1l, fsr1h, fsr2l, fsr2h, status,2, status,0, prodl, prodh, cstack
  1871 ;; Tracked objects:
  1872 ;;		On entry : 0/0
  1873 ;;		On exit  : 0/0
  1874 ;;		Unchanged: 0/0
  1875 ;; Data sizes:     COMRAM   BANK0   BANK1   BANK2   BANK3   BANK4   BANK5   BANK6   BANK7   BANK8   BANK9  BANK10  BANK1
      +1  BANK12  BANK13  BANK14
  1876 ;;      Params:         0       0       8       0       0       0       0       0       0       0       0       0       
      +0       0       0       0
  1877 ;;      Locals:         0       0       1       0       0       0       0       0       0       0       0       0       
      +0       0       0       0
  1878 ;;      Temps:          0       0       0       0       0       0       0       0       0       0       0       0       
      +0       0       0       0
  1879 ;;      Totals:         0       0       9       0       0       0       0       0       0       0       0       0       
      +0       0       0       0
  1880 ;;Total ram usage:        9 bytes
  1881 ;; Hardware stack levels used:    1
  1882 ;; Hardware stack levels required when called:   13
  1883 ;; This function calls:
  1884 ;;		_FromMainHigh_sendmsg
  1885 ;;		___lwmod
  1886 ;; This function is called by:
  1887 ;;		_main
  1888 ;; This function uses a non-reentrant model
  1889 ;;
  1890                           
  1891                           	psect	text6
  1892  001202                     __ptext6:
  1893                           	opt stack 0
  1894  001202                     _timer1_lthread:
  1895                           	opt stack 17
  1896                           
  1897                           ;timer1_thread.c: 15: signed char retval;
  1898                           ;timer1_thread.c: 17: tptr->msgcount++;
  1899                           
  1900                           ; BSR set to: 0
  1901                           ;incstack = 0
  1902  001202  C1BC  FFD9         	movff	timer1_lthread@tptr,fsr2l
  1903  001206  C1BD  FFDA         	movff	timer1_lthread@tptr+1,fsr2h
  1904  00120A  2ADE               	incf	postinc2,f,c
  1905  00120C  0E00               	movlw	0
  1906  00120E  22DD               	addwfc	postdec2,f,c
  1907                           
  1908                           ;timer1_thread.c: 20: if ((tptr->msgcount % 10) == 9) {
  1909  001210  C1BC  FFD9         	movff	timer1_lthread@tptr,fsr2l
  1910  001214  C1BD  FFDA         	movff	timer1_lthread@tptr+1,fsr2h
  1911  001218  0101               	movlb	1	; () banked
  1912  00121A  CFDE F1A2          	movff	postinc2,___lwmod@dividend
  1913  00121E  0101               	movlb	1	; () banked
  1914  001220  CFDD F1A3          	movff	postdec2,___lwmod@dividend+1
  1915  001224  0E00               	movlw	0
  1916  001226  0101               	movlb	1	; () banked
  1917  001228  6FA5               	movwf	(___lwmod@divisor+1)& (0+255),b
  1918  00122A  0E0A               	movlw	10
  1919  00122C  0101               	movlb	1	; () banked
  1920  00122E  6FA4               	movwf	___lwmod@divisor& (0+255),b
  1921  001230  ECD1  F008         	call	___lwmod	;wreg free
  1922  001234  0101               	movlb	1	; () banked
  1923  001236  51A2               	movf	?___lwmod& (0+255),w,b
  1924  001238  0A09               	xorlw	9
  1925  00123A  0101               	movlb	1	; () banked
  1926  00123C  11A3               	iorwf	(?___lwmod+1)& (0+255),w,b
  1927  00123E  A4D8               	btfss	status,2,c
  1928  001240  0012               	return	
  1929                           
  1930                           ; BSR set to: 1
  1931                           ;timer1_thread.c: 21: retval = FromMainHigh_sendmsg(sizeof (tptr->msgcount), 20, (void *
      +                          ) &(tptr->msgcount));
  1932  001242  0E14               	movlw	20
  1933  001244  0101               	movlb	1	; () banked
  1934  001246  6FB8               	movwf	FromMainHigh_sendmsg@msgtype& (0+255),b
  1935  001248  0101               	movlb	1	; () banked
  1936  00124A  C1BD  F1BA         	movff	timer1_lthread@tptr+1,FromMainHigh_sendmsg@data+1
  1937  00124E  0101               	movlb	1	; () banked
  1938  001250  C1BC  F1B9         	movff	timer1_lthread@tptr,FromMainHigh_sendmsg@data
  1939  001254  0E02               	movlw	2
  1940  001256  EC41  F00B         	call	_FromMainHigh_sendmsg
  1941  00125A  0101               	movlb	1	; () banked
  1942  00125C  6FC4               	movwf	timer1_lthread@retval& (0+255),b
  1943  00125E  0012               	return	
  1944  001260                     __end_of_timer1_lthread:
  1945                           	opt stack 0
  1946                           tblptru	equ	0xFF8
  1947                           prodh	equ	0xFF4
  1948                           prodl	equ	0xFF3
  1949                           postinc0	equ	0xFEE
  1950                           wreg	equ	0xFE8
  1951                           indf2	equ	0xFDF
  1952                           postinc2	equ	0xFDE
  1953                           postdec2	equ	0xFDD
  1954                           fsr2h	equ	0xFDA
  1955                           fsr2l	equ	0xFD9
  1956                           status	equ	0xFD8
  1957                           
  1958 ;; *************** function ___lwmod *****************
  1959 ;; Defined at:
  1960 ;;		line 8 in file "C:\Program Files (x86)\Microchip\xc8\v1.32\sources\common\lwmod.c"
  1961 ;; Parameters:    Size  Location     Type
  1962 ;;  dividend        2    0[BANK1 ] unsigned int 
  1963 ;;  divisor         2    2[BANK1 ] unsigned int 
  1964 ;; Auto vars:     Size  Location     Type
  1965 ;;  counter         1    4[BANK1 ] unsigned char 
  1966 ;; Return value:  Size  Location     Type
  1967 ;;                  2    0[BANK1 ] unsigned int 
  1968 ;; Registers used:
  1969 ;;		wreg, status,2, status,0
  1970 ;; Tracked objects:
  1971 ;;		On entry : 0/0
  1972 ;;		On exit  : 0/0
  1973 ;;		Unchanged: 0/0
  1974 ;; Data sizes:     COMRAM   BANK0   BANK1   BANK2   BANK3   BANK4   BANK5   BANK6   BANK7   BANK8   BANK9  BANK10  BANK1
      +1  BANK12  BANK13  BANK14
  1975 ;;      Params:         0       0       4       0       0       0       0       0       0       0       0       0       
      +0       0       0       0
  1976 ;;      Locals:         0       0       1       0       0       0       0       0       0       0       0       0       
      +0       0       0       0
  1977 ;;      Temps:          0       0       0       0       0       0       0       0       0       0       0       0       
      +0       0       0       0
  1978 ;;      Totals:         0       0       5       0       0       0       0       0       0       0       0       0       
      +0       0       0       0
  1979 ;;Total ram usage:        5 bytes
  1980 ;; Hardware stack levels used:    1
  1981 ;; Hardware stack levels required when called:   10
  1982 ;; This function calls:
  1983 ;;		Nothing
  1984 ;; This function is called by:
  1985 ;;		_timer1_lthread
  1986 ;; This function uses a non-reentrant model
  1987 ;;
  1988                           
  1989                           	psect	text7
  1990  0011A2                     __ptext7:
  1991                           	opt stack 0
  1992  0011A2                     ___lwmod:
  1993                           	opt stack 19
  1994                           
  1995                           ; BSR set to: 1
  1996                           ;incstack = 0
  1997  0011A2  0101               	movlb	1	; () banked
  1998  0011A4  51A5               	movf	(___lwmod@divisor+1)& (0+255),w,b
  1999  0011A6  11A4               	iorwf	___lwmod@divisor& (0+255),w,b
  2000  0011A8  B4D8               	btfsc	status,2,c
  2001  0011AA  D026               	goto	l1041
  2002                           
  2003                           ; BSR set to: 1
  2004  0011AC  0E01               	movlw	1
  2005  0011AE  0101               	movlb	1	; () banked
  2006  0011B0  6FA6               	movwf	___lwmod@counter& (0+255),b
  2007  0011B2  D006               	goto	l3006
  2008  0011B4                     l3004:
  2009                           
  2010                           ; BSR set to: 1
  2011  0011B4  0101               	movlb	1	; () banked
  2012  0011B6  90D8               	bcf	status,0,c
  2013  0011B8  37A4               	rlcf	___lwmod@divisor& (0+255),f,b
  2014  0011BA  37A5               	rlcf	(___lwmod@divisor+1)& (0+255),f,b
  2015  0011BC  0101               	movlb	1	; () banked
  2016  0011BE  2BA6               	incf	___lwmod@counter& (0+255),f,b
  2017  0011C0                     l3006:
  2018                           
  2019                           ; BSR set to: 1
  2020  0011C0  0101               	movlb	1	; () banked
  2021  0011C2  AFA5               	btfss	(___lwmod@divisor+1)& (0+255),7,b
  2022  0011C4  D7F7               	goto	l3004
  2023  0011C6                     l3008:
  2024                           
  2025                           ; BSR set to: 1
  2026  0011C6  0101               	movlb	1	; () banked
  2027  0011C8  51A4               	movf	___lwmod@divisor& (0+255),w,b
  2028  0011CA  0101               	movlb	1	; () banked
  2029  0011CC  5DA2               	subwf	___lwmod@dividend& (0+255),w,b
  2030  0011CE  0101               	movlb	1	; () banked
  2031  0011D0  51A5               	movf	(___lwmod@divisor+1)& (0+255),w,b
  2032  0011D2  0101               	movlb	1	; () banked
  2033  0011D4  59A3               	subwfb	(___lwmod@dividend+1)& (0+255),w,b
  2034  0011D6  A0D8               	btfss	status,0,c
  2035  0011D8  D008               	goto	l3012
  2036                           
  2037                           ; BSR set to: 1
  2038  0011DA  0101               	movlb	1	; () banked
  2039  0011DC  51A4               	movf	___lwmod@divisor& (0+255),w,b
  2040  0011DE  0101               	movlb	1	; () banked
  2041  0011E0  5FA2               	subwf	___lwmod@dividend& (0+255),f,b
  2042  0011E2  0101               	movlb	1	; () banked
  2043  0011E4  51A5               	movf	(___lwmod@divisor+1)& (0+255),w,b
  2044  0011E6  0101               	movlb	1	; () banked
  2045  0011E8  5BA3               	subwfb	(___lwmod@dividend+1)& (0+255),f,b
  2046  0011EA                     l3012:
  2047                           
  2048                           ; BSR set to: 1
  2049  0011EA  0101               	movlb	1	; () banked
  2050  0011EC  90D8               	bcf	status,0,c
  2051  0011EE  33A5               	rrcf	(___lwmod@divisor+1)& (0+255),f,b
  2052  0011F0  33A4               	rrcf	___lwmod@divisor& (0+255),f,b
  2053                           
  2054                           ; BSR set to: 1
  2055  0011F2  0101               	movlb	1	; () banked
  2056  0011F4  2FA6               	decfsz	___lwmod@counter& (0+255),f,b
  2057  0011F6  D7E7               	goto	l3008
  2058  0011F8                     l1041:
  2059                           
  2060                           ; BSR set to: 1
  2061  0011F8  C1A2  F1A2         	movff	___lwmod@dividend,?___lwmod
  2062  0011FC  C1A3  F1A3         	movff	___lwmod@dividend+1,?___lwmod+1
  2063                           
  2064                           ; BSR set to: 1
  2065  001200  0012               	return	
  2066  001202                     __end_of___lwmod:
  2067                           	opt stack 0
  2068                           tblptru	equ	0xFF8
  2069                           prodh	equ	0xFF4
  2070                           prodl	equ	0xFF3
  2071                           postinc0	equ	0xFEE
  2072                           wreg	equ	0xFE8
  2073                           indf2	equ	0xFDF
  2074                           postinc2	equ	0xFDE
  2075                           postdec2	equ	0xFDD
  2076                           fsr2h	equ	0xFDA
  2077                           fsr2l	equ	0xFD9
  2078                           status	equ	0xFD8
  2079                           
  2080 ;; *************** function _FromMainHigh_sendmsg *****************
  2081 ;; Defined at:
  2082 ;;		line 174 in file "../src/messages.c"
  2083 ;; Parameters:    Size  Location     Type
  2084 ;;  length          1    wreg     unsigned char 
  2085 ;;  msgtype         1   22[BANK1 ] unsigned char 
  2086 ;;  data            2   23[BANK1 ] PTR void 
  2087 ;;		 -> main@t1thread_data(2), 
  2088 ;; Auto vars:     Size  Location     Type
  2089 ;;  length          1   25[BANK1 ] unsigned char 
  2090 ;; Return value:  Size  Location     Type
  2091 ;;                  1    wreg      char 
  2092 ;; Registers used:
  2093 ;;		wreg, fsr1l, fsr1h, fsr2l, fsr2h, status,2, status,0, prodl, prodh, cstack
  2094 ;; Tracked objects:
  2095 ;;		On entry : 0/0
  2096 ;;		On exit  : 0/0
  2097 ;;		Unchanged: 0/0
  2098 ;; Data sizes:     COMRAM   BANK0   BANK1   BANK2   BANK3   BANK4   BANK5   BANK6   BANK7   BANK8   BANK9  BANK10  BANK1
      +1  BANK12  BANK13  BANK14
  2099 ;;      Params:         0       0       3       0       0       0       0       0       0       0       0       0       
      +0       0       0       0
  2100 ;;      Locals:         0       0       1       0       0       0       0       0       0       0       0       0       
      +0       0       0       0
  2101 ;;      Temps:          0       0       0       0       0       0       0       0       0       0       0       0       
      +0       0       0       0
  2102 ;;      Totals:         0       0       4       0       0       0       0       0       0       0       0       0       
      +0       0       0       0
  2103 ;;Total ram usage:        4 bytes
  2104 ;; Hardware stack levels used:    1
  2105 ;; Hardware stack levels required when called:   12
  2106 ;; This function calls:
  2107 ;;		_send_msg
  2108 ;; This function is called by:
  2109 ;;		_timer1_lthread
  2110 ;; This function uses a non-reentrant model
  2111 ;;
  2112                           
  2113                           	psect	text8
  2114  001682                     __ptext8:
  2115                           	opt stack 0
  2116  001682                     _FromMainHigh_sendmsg:
  2117                           	opt stack 17
  2118                           
  2119                           ; BSR set to: 1
  2120                           ;incstack = 0
  2121                           ;FromMainHigh_sendmsg@length stored from wreg
  2122  001682  0101               	movlb	1	; () banked
  2123  001684  6FBB               	movwf	FromMainHigh_sendmsg@length& (0+255),b
  2124                           
  2125                           ; BSR set to: 1
  2126                           ;messages.c: 180: return (send_msg(&FromMainHigh_MQ, length, msgtype, data));
  2127  001686  0101               	movlb	1	; () banked
  2128  001688  0E01               	movlw	high _FromMainHigh_MQ
  2129  00168A  0101               	movlb	1	; () banked
  2130  00168C  6FAD               	movwf	(send_msg@qptr+1)& (0+255),b
  2131  00168E  0101               	movlb	1	; () banked
  2132  001690  0E00               	movlw	low _FromMainHigh_MQ
  2133  001692  0101               	movlb	1	; () banked
  2134  001694  6FAC               	movwf	send_msg@qptr& (0+255),b
  2135  001696  C1BB  F1AE         	movff	FromMainHigh_sendmsg@length,send_msg@length
  2136  00169A  C1B8  F1AF         	movff	FromMainHigh_sendmsg@msgtype,send_msg@msgtype
  2137  00169E  0101               	movlb	1	; () banked
  2138  0016A0  C1BA  F1B1         	movff	FromMainHigh_sendmsg@data+1,send_msg@data+1
  2139  0016A4  0101               	movlb	1	; () banked
  2140  0016A6  C1B9  F1B0         	movff	FromMainHigh_sendmsg@data,send_msg@data
  2141  0016AA  EC14  F006         	call	_send_msg	;wreg free
  2142  0016AE  0012               	return	
  2143  0016B0                     __end_of_FromMainHigh_sendmsg:
  2144                           	opt stack 0
  2145                           tblptru	equ	0xFF8
  2146                           prodh	equ	0xFF4
  2147                           prodl	equ	0xFF3
  2148                           postinc0	equ	0xFEE
  2149                           wreg	equ	0xFE8
  2150                           indf2	equ	0xFDF
  2151                           postinc2	equ	0xFDE
  2152                           postdec2	equ	0xFDD
  2153                           fsr2h	equ	0xFDA
  2154                           fsr2l	equ	0xFD9
  2155                           status	equ	0xFD8
  2156                           
  2157 ;; *************** function _send_msg *****************
  2158 ;; Defined at:
  2159 ;;		line 24 in file "../src/messages.c"
  2160 ;; Parameters:    Size  Location     Type
  2161 ;;  qptr            2   10[BANK1 ] PTR struct __msg_queue
  2162 ;;		 -> FromMainHigh_MQ(54), FromMainLow_MQ(54), ToMainHigh_MQ(54), ToMainLow_MQ(54), 
  2163 ;;  length          1   12[BANK1 ] unsigned char 
  2164 ;;  msgtype         1   13[BANK1 ] unsigned char 
  2165 ;;  data            2   14[BANK1 ] PTR void 
  2166 ;;		 -> NULL(0), timer0_int_handler@val(2), i2c_int_handler@error_buf(3), main@t1thread_data(2), 
  2167 ;;		 -> main@ic(28), 
  2168 ;; Auto vars:     Size  Location     Type
  2169 ;;  qmsg            2   20[BANK1 ] PTR struct __msg
  2170 ;;		 -> FromMainLow_MQ.queue(52), FromMainHigh_MQ.queue(52), ToMainHigh_MQ.queue(52), ToMainLow_MQ.queue(52), 
  2171 ;;		 -> FromMainHigh_MQ(54), FromMainLow_MQ(54), ToMainHigh_MQ(54), ToMainLow_MQ(54), 
  2172 ;;  tlength         2   17[BANK1 ] unsigned int 
  2173 ;;  slot            1   19[BANK1 ] unsigned char 
  2174 ;; Return value:  Size  Location     Type
  2175 ;;                  1    wreg      char 
  2176 ;; Registers used:
  2177 ;;		wreg, fsr1l, fsr1h, fsr2l, fsr2h, status,2, status,0, prodl, prodh, cstack
  2178 ;; Tracked objects:
  2179 ;;		On entry : 0/0
  2180 ;;		On exit  : 0/0
  2181 ;;		Unchanged: 0/0
  2182 ;; Data sizes:     COMRAM   BANK0   BANK1   BANK2   BANK3   BANK4   BANK5   BANK6   BANK7   BANK8   BANK9  BANK10  BANK1
      +1  BANK12  BANK13  BANK14
  2183 ;;      Params:         0       0       6       0       0       0       0       0       0       0       0       0       
      +0       0       0       0
  2184 ;;      Locals:         0       0       5       0       0       0       0       0       0       0       0       0       
      +0       0       0       0
  2185 ;;      Temps:          0       0       1       0       0       0       0       0       0       0       0       0       
      +0       0       0       0
  2186 ;;      Totals:         0       0      12       0       0       0       0       0       0       0       0       0       
      +0       0       0       0
  2187 ;;Total ram usage:       12 bytes
  2188 ;; Hardware stack levels used:    1
  2189 ;; Hardware stack levels required when called:   11
  2190 ;; This function calls:
  2191 ;;		_memcpy
  2192 ;; This function is called by:
  2193 ;;		_FromMainHigh_sendmsg
  2194 ;;		_FromMainLow_sendmsg
  2195 ;; This function uses a non-reentrant model
  2196 ;;
  2197                           
  2198                           	psect	text9
  2199  000C28                     __ptext9:
  2200                           	opt stack 0
  2201  000C28                     _send_msg:
  2202                           	opt stack 17
  2203                           
  2204                           ;messages.c: 25: unsigned char slot;
  2205                           ;messages.c: 27: msg *qmsg;
  2206                           ;messages.c: 28: size_t tlength = length;
  2207                           
  2208                           ;incstack = 0
  2209  000C28  0101               	movlb	1	; () banked
  2210  000C2A  C1AE  F1B3         	movff	send_msg@length,send_msg@tlength
  2211  000C2E  0101               	movlb	1	; () banked
  2212  000C30  6BB4               	clrf	(send_msg@tlength+1)& (0+255),b
  2213                           
  2214                           ; BSR set to: 1
  2215                           ;messages.c: 38: slot = qptr->cur_write_ind;
  2216  000C32  0101               	movlb	1	; () banked
  2217  000C34  EE20 F034          	lfsr	2,52
  2218  000C38  0101               	movlb	1	; () banked
  2219  000C3A  51AC               	movf	send_msg@qptr& (0+255),w,b
  2220  000C3C  26D9               	addwf	fsr2l,f,c
  2221  000C3E  0101               	movlb	1	; () banked
  2222  000C40  51AD               	movf	(send_msg@qptr+1)& (0+255),w,b
  2223  000C42  22DA               	addwfc	fsr2h,f,c
  2224  000C44  50DF               	movf	indf2,w,c
  2225  000C46  0101               	movlb	1	; () banked
  2226  000C48  6FB5               	movwf	send_msg@slot& (0+255),b
  2227                           
  2228                           ; BSR set to: 1
  2229                           ;messages.c: 39: qmsg = &(qptr->queue[slot]);
  2230  000C4A  0101               	movlb	1	; () banked
  2231  000C4C  51B5               	movf	send_msg@slot& (0+255),w,b
  2232  000C4E  0D0D               	mullw	13
  2233  000C50  50F3               	movf	prodl,w,c
  2234  000C52  0101               	movlb	1	; () banked
  2235  000C54  25AC               	addwf	send_msg@qptr& (0+255),w,b
  2236  000C56  0101               	movlb	1	; () banked
  2237  000C58  6FB6               	movwf	send_msg@qmsg& (0+255),b
  2238  000C5A  50F4               	movf	prodh,w,c
  2239  000C5C  0101               	movlb	1	; () banked
  2240  000C5E  21AD               	addwfc	(send_msg@qptr+1)& (0+255),w,b
  2241  000C60  0101               	movlb	1	; () banked
  2242  000C62  6FB7               	movwf	(send_msg@qmsg+1)& (0+255),b
  2243                           
  2244                           ; BSR set to: 1
  2245                           ;messages.c: 41: if (qmsg->full != 0) {
  2246  000C64  C1B6  FFD9         	movff	send_msg@qmsg,fsr2l
  2247  000C68  C1B7  FFDA         	movff	send_msg@qmsg+1,fsr2h
  2248  000C6C  50DF               	movf	indf2,w,c
  2249  000C6E  B4D8               	btfsc	status,2,c
  2250  000C70  D002               	goto	l2832
  2251                           
  2252                           ; BSR set to: 1
  2253                           ;messages.c: 42: return (-1);
  2254  000C72  0EFF               	movlw	255
  2255  000C74  0012               	return	
  2256  000C76                     l2832:
  2257                           
  2258                           ; BSR set to: 1
  2259                           ;messages.c: 43: }
  2260                           ;messages.c: 46: qmsg->length = length;
  2261  000C76  0101               	movlb	1	; () banked
  2262  000C78  EE20 F001          	lfsr	2,1
  2263  000C7C  0101               	movlb	1	; () banked
  2264  000C7E  51B6               	movf	send_msg@qmsg& (0+255),w,b
  2265  000C80  26D9               	addwf	fsr2l,f,c
  2266  000C82  0101               	movlb	1	; () banked
  2267  000C84  51B7               	movf	(send_msg@qmsg+1)& (0+255),w,b
  2268  000C86  22DA               	addwfc	fsr2h,f,c
  2269  000C88  0101               	movlb	1	; () banked
  2270  000C8A  C1AE  FFDF         	movff	send_msg@length,indf2
  2271                           
  2272                           ;messages.c: 47: qmsg->msgtype = msgtype;
  2273  000C8E  0101               	movlb	1	; () banked
  2274  000C90  EE20 F002          	lfsr	2,2
  2275  000C94  0101               	movlb	1	; () banked
  2276  000C96  51B6               	movf	send_msg@qmsg& (0+255),w,b
  2277  000C98  26D9               	addwf	fsr2l,f,c
  2278  000C9A  0101               	movlb	1	; () banked
  2279  000C9C  51B7               	movf	(send_msg@qmsg+1)& (0+255),w,b
  2280  000C9E  22DA               	addwfc	fsr2h,f,c
  2281  000CA0  0101               	movlb	1	; () banked
  2282  000CA2  C1AF  FFDF         	movff	send_msg@msgtype,indf2
  2283                           
  2284                           ; BSR set to: 1
  2285                           ;messages.c: 55: memcpy(qmsg->data, data, tlength);
  2286  000CA6  0E03               	movlw	3
  2287  000CA8  0101               	movlb	1	; () banked
  2288  000CAA  25B6               	addwf	send_msg@qmsg& (0+255),w,b
  2289  000CAC  0101               	movlb	1	; () banked
  2290  000CAE  6FA2               	movwf	memcpy@d1& (0+255),b
  2291  000CB0  0E00               	movlw	0
  2292  000CB2  0101               	movlb	1	; () banked
  2293  000CB4  21B7               	addwfc	(send_msg@qmsg+1)& (0+255),w,b
  2294  000CB6  0101               	movlb	1	; () banked
  2295  000CB8  6FA3               	movwf	(memcpy@d1+1)& (0+255),b
  2296  000CBA  0101               	movlb	1	; () banked
  2297  000CBC  C1B1  F1A5         	movff	send_msg@data+1,memcpy@s1+1
  2298  000CC0  0101               	movlb	1	; () banked
  2299  000CC2  C1B0  F1A4         	movff	send_msg@data,memcpy@s1
  2300  000CC6  C1B3  F1A6         	movff	send_msg@tlength,memcpy@n
  2301  000CCA  C1B4  F1A7         	movff	send_msg@tlength+1,memcpy@n+1
  2302  000CCE  EC8A  F009         	call	_memcpy	;wreg free
  2303                           
  2304                           ;messages.c: 56: qptr->cur_write_ind = (qptr->cur_write_ind + 1) % 4;
  2305  000CD2  0101               	movlb	1	; () banked
  2306  000CD4  EE20 F034          	lfsr	2,52
  2307  000CD8  0101               	movlb	1	; () banked
  2308  000CDA  51AC               	movf	send_msg@qptr& (0+255),w,b
  2309  000CDC  26D9               	addwf	fsr2l,f,c
  2310  000CDE  0101               	movlb	1	; () banked
  2311  000CE0  51AD               	movf	(send_msg@qptr+1)& (0+255),w,b
  2312  000CE2  22DA               	addwfc	fsr2h,f,c
  2313  000CE4  0101               	movlb	1	; () banked
  2314  000CE6  EE10 F034          	lfsr	1,52
  2315  000CEA  0101               	movlb	1	; () banked
  2316  000CEC  51AC               	movf	send_msg@qptr& (0+255),w,b
  2317  000CEE  26E1               	addwf	fsr1l,f,c
  2318  000CF0  0101               	movlb	1	; () banked
  2319  000CF2  51AD               	movf	(send_msg@qptr+1)& (0+255),w,b
  2320  000CF4  22E2               	addwfc	fsr1h,f,c
  2321  000CF6  50E7               	movf	indf1,w,c
  2322  000CF8  0101               	movlb	1	; () banked
  2323  000CFA  6FB2               	movwf	??_send_msg& (0+255),b
  2324  000CFC  0101               	movlb	1	; () banked
  2325  000CFE  29B2               	incf	??_send_msg& (0+255),w,b
  2326  000D00  0B03               	andlw	3
  2327  000D02  6EDF               	movwf	indf2,c
  2328                           
  2329                           ; BSR set to: 1
  2330                           ;messages.c: 59: qmsg->full = 1;
  2331  000D04  C1B6  FFD9         	movff	send_msg@qmsg,fsr2l
  2332  000D08  C1B7  FFDA         	movff	send_msg@qmsg+1,fsr2h
  2333  000D0C  0E01               	movlw	1
  2334  000D0E  6EDF               	movwf	indf2,c
  2335                           
  2336                           ; BSR set to: 1
  2337                           ;messages.c: 60: return (1);
  2338  000D10  0E01               	movlw	1
  2339  000D12  0012               	return	
  2340  000D14                     __end_of_send_msg:
  2341                           	opt stack 0
  2342                           tblptru	equ	0xFF8
  2343                           prodh	equ	0xFF4
  2344                           prodl	equ	0xFF3
  2345                           postinc0	equ	0xFEE
  2346                           wreg	equ	0xFE8
  2347                           indf1	equ	0xFE7
  2348                           fsr1h	equ	0xFE2
  2349                           fsr1l	equ	0xFE1
  2350                           indf2	equ	0xFDF
  2351                           postinc2	equ	0xFDE
  2352                           postdec2	equ	0xFDD
  2353                           fsr2h	equ	0xFDA
  2354                           fsr2l	equ	0xFD9
  2355                           status	equ	0xFD8
  2356                           
  2357 ;; *************** function _timer0_lthread *****************
  2358 ;; Defined at:
  2359 ;;		line 9 in file "../src/timer0_thread.c"
  2360 ;; Parameters:    Size  Location     Type
  2361 ;;  tptr            2    0[BANK1 ] PTR struct __timer0_thre
  2362 ;;		 -> main@t0thread_data(2), 
  2363 ;;  msgtype         2    2[BANK1 ] int 
  2364 ;;  length          2    4[BANK1 ] int 
  2365 ;;  msgbuffer       2    6[BANK1 ] PTR unsigned char 
  2366 ;;		 -> main@msgbuffer(11), 
  2367 ;; Auto vars:     Size  Location     Type
  2368 ;;  msgval          2    8[BANK1 ] PTR unsigned int 
  2369 ;;		 -> main@msgbuffer(11), 
  2370 ;; Return value:  Size  Location     Type
  2371 ;;                  2    0[BANK1 ] int 
  2372 ;; Registers used:
  2373 ;;		wreg, status,2, status,0
  2374 ;; Tracked objects:
  2375 ;;		On entry : 0/0
  2376 ;;		On exit  : 0/0
  2377 ;;		Unchanged: 0/0
  2378 ;; Data sizes:     COMRAM   BANK0   BANK1   BANK2   BANK3   BANK4   BANK5   BANK6   BANK7   BANK8   BANK9  BANK10  BANK1
      +1  BANK12  BANK13  BANK14
  2379 ;;      Params:         0       0       8       0       0       0       0       0       0       0       0       0       
      +0       0       0       0
  2380 ;;      Locals:         0       0       2       0       0       0       0       0       0       0       0       0       
      +0       0       0       0
  2381 ;;      Temps:          0       0       0       0       0       0       0       0       0       0       0       0       
      +0       0       0       0
  2382 ;;      Totals:         0       0      10       0       0       0       0       0       0       0       0       0       
      +0       0       0       0
  2383 ;;Total ram usage:       10 bytes
  2384 ;; Hardware stack levels used:    1
  2385 ;; Hardware stack levels required when called:   10
  2386 ;; This function calls:
  2387 ;;		Nothing
  2388 ;; This function is called by:
  2389 ;;		_main
  2390 ;; This function uses a non-reentrant model
  2391 ;;
  2392                           
  2393                           	psect	text10
  2394  00180E                     __ptext10:
  2395                           	opt stack 0
  2396  00180E                     _timer0_lthread:
  2397                           	opt stack 20
  2398                           
  2399                           ;timer0_thread.c: 10: unsigned int *msgval;
  2400                           ;timer0_thread.c: 12: msgval = (unsigned int *) msgbuffer;
  2401                           
  2402                           ; BSR set to: 1
  2403                           ;incstack = 0
  2404  00180E  0101               	movlb	1	; () banked
  2405  001810  C1A9  F1AB         	movff	timer0_lthread@msgbuffer+1,timer0_lthread@msgval+1
  2406  001814  0101               	movlb	1	; () banked
  2407  001816  C1A8  F1AA         	movff	timer0_lthread@msgbuffer,timer0_lthread@msgval
  2408                           
  2409                           ; BSR set to: 1
  2410  00181A  0012               	return	
  2411  00181C                     __end_of_timer0_lthread:
  2412                           	opt stack 0
  2413                           tblptru	equ	0xFF8
  2414                           prodh	equ	0xFF4
  2415                           prodl	equ	0xFF3
  2416                           postinc0	equ	0xFEE
  2417                           wreg	equ	0xFE8
  2418                           indf1	equ	0xFE7
  2419                           fsr1h	equ	0xFE2
  2420                           fsr1l	equ	0xFE1
  2421                           indf2	equ	0xFDF
  2422                           postinc2	equ	0xFDE
  2423                           postdec2	equ	0xFDD
  2424                           fsr2h	equ	0xFDA
  2425                           fsr2l	equ	0xFD9
  2426                           status	equ	0xFD8
  2427                           
  2428 ;; *************** function _start_i2c_slave_reply *****************
  2429 ;; Defined at:
  2430 ;;		line 53 in file "../src/my_i2c.c"
  2431 ;; Parameters:    Size  Location     Type
  2432 ;;  length          1    wreg     unsigned char 
  2433 ;;  msg             2    0[BANK1 ] PTR unsigned char 
  2434 ;;		 -> main@msgbuffer(11), 
  2435 ;; Auto vars:     Size  Location     Type
  2436 ;;  length          1    4[BANK1 ] unsigned char 
  2437 ;; Return value:  Size  Location     Type
  2438 ;;		None               void
  2439 ;; Registers used:
  2440 ;;		wreg, fsr1l, fsr1h, fsr2l, fsr2h, status,2, status,0, prodl, prodh
  2441 ;; Tracked objects:
  2442 ;;		On entry : 0/0
  2443 ;;		On exit  : 0/0
  2444 ;;		Unchanged: 0/0
  2445 ;; Data sizes:     COMRAM   BANK0   BANK1   BANK2   BANK3   BANK4   BANK5   BANK6   BANK7   BANK8   BANK9  BANK10  BANK1
      +1  BANK12  BANK13  BANK14
  2446 ;;      Params:         0       0       2       0       0       0       0       0       0       0       0       0       
      +0       0       0       0
  2447 ;;      Locals:         0       0       1       0       0       0       0       0       0       0       0       0       
      +0       0       0       0
  2448 ;;      Temps:          0       0       2       0       0       0       0       0       0       0       0       0       
      +0       0       0       0
  2449 ;;      Totals:         0       0       5       0       0       0       0       0       0       0       0       0       
      +0       0       0       0
  2450 ;;Total ram usage:        5 bytes
  2451 ;; Hardware stack levels used:    1
  2452 ;; Hardware stack levels required when called:   10
  2453 ;; This function calls:
  2454 ;;		Nothing
  2455 ;; This function is called by:
  2456 ;;		_main
  2457 ;; This function uses a non-reentrant model
  2458 ;;
  2459                           
  2460                           	psect	text11
  2461  000B24                     __ptext11:
  2462                           	opt stack 0
  2463  000B24                     _start_i2c_slave_reply:
  2464                           	opt stack 20
  2465                           
  2466                           ; BSR set to: 1
  2467                           ;incstack = 0
  2468                           ;start_i2c_slave_reply@length stored from wreg
  2469  000B24  0101               	movlb	1	; () banked
  2470  000B26  6FA6               	movwf	start_i2c_slave_reply@length& (0+255),b
  2471                           
  2472                           ; BSR set to: 1
  2473                           ;my_i2c.c: 55: for (ic_ptr->outbuflen = 0; ic_ptr->outbuflen < length; ic_ptr->outbuflen
      +                          ++) {
  2474  000B28  0100               	movlb	0	; () banked
  2475  000B2A  EE20 F019          	lfsr	2,25
  2476  000B2E  0100               	movlb	0	; () banked
  2477  000B30  51CF               	movf	_ic_ptr& (0+255),w,b
  2478  000B32  26D9               	addwf	fsr2l,f,c
  2479  000B34  0100               	movlb	0	; () banked
  2480  000B36  51D0               	movf	(_ic_ptr+1)& (0+255),w,b
  2481  000B38  22DA               	addwfc	fsr2h,f,c
  2482  000B3A  0E00               	movlw	0
  2483  000B3C  6EDF               	movwf	indf2,c
  2484  000B3E  D03E               	goto	l3368
  2485  000B40                     l3364:
  2486                           
  2487                           ;my_i2c.c: 56: ic_ptr->outbuffer[ic_ptr->outbuflen] = msg[ic_ptr->outbuflen];
  2488  000B40  0100               	movlb	0	; () banked
  2489  000B42  EE20 F019          	lfsr	2,25
  2490  000B46  0100               	movlb	0	; () banked
  2491  000B48  51CF               	movf	_ic_ptr& (0+255),w,b
  2492  000B4A  26D9               	addwf	fsr2l,f,c
  2493  000B4C  0100               	movlb	0	; () banked
  2494  000B4E  51D0               	movf	(_ic_ptr+1)& (0+255),w,b
  2495  000B50  22DA               	addwfc	fsr2h,f,c
  2496  000B52  50DF               	movf	indf2,w,c
  2497  000B54  0101               	movlb	1	; () banked
  2498  000B56  6FA4               	movwf	??_start_i2c_slave_reply& (0+255),b
  2499  000B58  0101               	movlb	1	; () banked
  2500  000B5A  51A4               	movf	??_start_i2c_slave_reply& (0+255),w,b
  2501  000B5C  0D01               	mullw	1
  2502  000B5E  50F3               	movf	prodl,w,c
  2503  000B60  0101               	movlb	1	; () banked
  2504  000B62  25A2               	addwf	start_i2c_slave_reply@msg& (0+255),w,b
  2505  000B64  6ED9               	movwf	fsr2l,c
  2506  000B66  50F4               	movf	prodh,w,c
  2507  000B68  0101               	movlb	1	; () banked
  2508  000B6A  21A3               	addwfc	(start_i2c_slave_reply@msg+1)& (0+255),w,b
  2509  000B6C  6EDA               	movwf	fsr2h,c
  2510  000B6E  0100               	movlb	0	; () banked
  2511  000B70  EE10 F019          	lfsr	1,25
  2512  000B74  0100               	movlb	0	; () banked
  2513  000B76  51CF               	movf	_ic_ptr& (0+255),w,b
  2514  000B78  26E1               	addwf	fsr1l,f,c
  2515  000B7A  0100               	movlb	0	; () banked
  2516  000B7C  51D0               	movf	(_ic_ptr+1)& (0+255),w,b
  2517  000B7E  22E2               	addwfc	fsr1h,f,c
  2518  000B80  50E7               	movf	indf1,w,c
  2519  000B82  0101               	movlb	1	; () banked
  2520  000B84  6FA5               	movwf	(??_start_i2c_slave_reply+1)& (0+255),b
  2521  000B86  0101               	movlb	1	; () banked
  2522  000B88  51A5               	movf	(??_start_i2c_slave_reply+1)& (0+255),w,b
  2523  000B8A  0D01               	mullw	1
  2524  000B8C  0E0F               	movlw	15
  2525  000B8E  26F3               	addwf	prodl,f,c
  2526  000B90  0E00               	movlw	0
  2527  000B92  22F4               	addwfc	prodh,f,c
  2528  000B94  50F3               	movf	prodl,w,c
  2529  000B96  0100               	movlb	0	; () banked
  2530  000B98  25CF               	addwf	_ic_ptr& (0+255),w,b
  2531  000B9A  6EE1               	movwf	fsr1l,c
  2532  000B9C  50F4               	movf	prodh,w,c
  2533  000B9E  0100               	movlb	0	; () banked
  2534  000BA0  21D0               	addwfc	(_ic_ptr+1)& (0+255),w,b
  2535  000BA2  6EE2               	movwf	fsr1h,c
  2536  000BA4  CFDF FFE7          	movff	indf2,indf1
  2537                           
  2538                           ; BSR set to: 0
  2539  000BA8  0100               	movlb	0	; () banked
  2540  000BAA  EE20 F019          	lfsr	2,25
  2541  000BAE  0100               	movlb	0	; () banked
  2542  000BB0  51CF               	movf	_ic_ptr& (0+255),w,b
  2543  000BB2  26D9               	addwf	fsr2l,f,c
  2544  000BB4  0100               	movlb	0	; () banked
  2545  000BB6  51D0               	movf	(_ic_ptr+1)& (0+255),w,b
  2546  000BB8  22DA               	addwfc	fsr2h,f,c
  2547  000BBA  2ADF               	incf	indf2,f,c
  2548  000BBC                     l3368:
  2549                           
  2550                           ; BSR set to: 0
  2551  000BBC  0100               	movlb	0	; () banked
  2552  000BBE  EE20 F019          	lfsr	2,25
  2553  000BC2  0100               	movlb	0	; () banked
  2554  000BC4  51CF               	movf	_ic_ptr& (0+255),w,b
  2555  000BC6  26D9               	addwf	fsr2l,f,c
  2556  000BC8  0100               	movlb	0	; () banked
  2557  000BCA  51D0               	movf	(_ic_ptr+1)& (0+255),w,b
  2558  000BCC  22DA               	addwfc	fsr2h,f,c
  2559  000BCE  50DF               	movf	indf2,w,c
  2560  000BD0  0101               	movlb	1	; () banked
  2561  000BD2  6FA4               	movwf	??_start_i2c_slave_reply& (0+255),b
  2562  000BD4  0101               	movlb	1	; () banked
  2563  000BD6  51A6               	movf	start_i2c_slave_reply@length& (0+255),w,b
  2564  000BD8  0101               	movlb	1	; () banked
  2565  000BDA  5DA4               	subwf	??_start_i2c_slave_reply& (0+255),w,b
  2566  000BDC  A0D8               	btfss	status,0,c
  2567  000BDE  D7B0               	goto	l3364
  2568                           
  2569                           ; BSR set to: 1
  2570                           ;my_i2c.c: 57: }
  2571                           ;my_i2c.c: 58: ic_ptr->outbuflen = length;
  2572                           
  2573                           ; BSR set to: 1
  2574  000BE0  0100               	movlb	0	; () banked
  2575  000BE2  EE20 F019          	lfsr	2,25
  2576  000BE6  0100               	movlb	0	; () banked
  2577  000BE8  51CF               	movf	_ic_ptr& (0+255),w,b
  2578  000BEA  26D9               	addwf	fsr2l,f,c
  2579  000BEC  0100               	movlb	0	; () banked
  2580  000BEE  51D0               	movf	(_ic_ptr+1)& (0+255),w,b
  2581  000BF0  22DA               	addwfc	fsr2h,f,c
  2582  000BF2  0101               	movlb	1	; () banked
  2583  000BF4  C1A6  FFDF         	movff	start_i2c_slave_reply@length,indf2
  2584                           
  2585                           ;my_i2c.c: 59: ic_ptr->outbufind = 1;
  2586  000BF8  0100               	movlb	0	; () banked
  2587  000BFA  EE20 F01A          	lfsr	2,26
  2588  000BFE  0100               	movlb	0	; () banked
  2589  000C00  51CF               	movf	_ic_ptr& (0+255),w,b
  2590  000C02  26D9               	addwf	fsr2l,f,c
  2591  000C04  0100               	movlb	0	; () banked
  2592  000C06  51D0               	movf	(_ic_ptr+1)& (0+255),w,b
  2593  000C08  22DA               	addwfc	fsr2h,f,c
  2594  000C0A  0E01               	movlw	1
  2595  000C0C  6EDF               	movwf	indf2,c
  2596                           
  2597                           ;my_i2c.c: 62: SSPBUF = ic_ptr->outbuffer[0];
  2598  000C0E  0100               	movlb	0	; () banked
  2599  000C10  EE20 F00F          	lfsr	2,15
  2600  000C14  0100               	movlb	0	; () banked
  2601  000C16  51CF               	movf	_ic_ptr& (0+255),w,b
  2602  000C18  26D9               	addwf	fsr2l,f,c
  2603  000C1A  0100               	movlb	0	; () banked
  2604  000C1C  51D0               	movf	(_ic_ptr+1)& (0+255),w,b
  2605  000C1E  22DA               	addwfc	fsr2h,f,c
  2606  000C20  50DF               	movf	indf2,w,c
  2607  000C22  6EC9               	movwf	4041,c	;volatile
  2608                           
  2609                           ; BSR set to: 0
  2610                           ;my_i2c.c: 65: SSPCON1bits.CKP = 1;
  2611  000C24  88C6               	bsf	4038,4,c	;volatile
  2612                           
  2613                           ; BSR set to: 0
  2614  000C26  0012               	return	
  2615  000C28                     __end_of_start_i2c_slave_reply:
  2616                           	opt stack 0
  2617                           tblptru	equ	0xFF8
  2618                           prodh	equ	0xFF4
  2619                           prodl	equ	0xFF3
  2620                           postinc0	equ	0xFEE
  2621                           wreg	equ	0xFE8
  2622                           indf1	equ	0xFE7
  2623                           fsr1h	equ	0xFE2
  2624                           fsr1l	equ	0xFE1
  2625                           indf2	equ	0xFDF
  2626                           postinc2	equ	0xFDE
  2627                           postdec2	equ	0xFDD
  2628                           fsr2h	equ	0xFDA
  2629                           fsr2l	equ	0xFD9
  2630                           status	equ	0xFD8
  2631                           
  2632 ;; *************** function _init_timer1_lthread *****************
  2633 ;; Defined at:
  2634 ;;		line 6 in file "../src/timer1_thread.c"
  2635 ;; Parameters:    Size  Location     Type
  2636 ;;  tptr            2    0[BANK1 ] PTR struct __timer1_thre
  2637 ;;		 -> main@t1thread_data(2), 
  2638 ;; Auto vars:     Size  Location     Type
  2639 ;;		None
  2640 ;; Return value:  Size  Location     Type
  2641 ;;		None               void
  2642 ;; Registers used:
  2643 ;;		wreg, fsr2l, fsr2h
  2644 ;; Tracked objects:
  2645 ;;		On entry : 0/0
  2646 ;;		On exit  : 0/0
  2647 ;;		Unchanged: 0/0
  2648 ;; Data sizes:     COMRAM   BANK0   BANK1   BANK2   BANK3   BANK4   BANK5   BANK6   BANK7   BANK8   BANK9  BANK10  BANK1
      +1  BANK12  BANK13  BANK14
  2649 ;;      Params:         0       0       2       0       0       0       0       0       0       0       0       0       
      +0       0       0       0
  2650 ;;      Locals:         0       0       0       0       0       0       0       0       0       0       0       0       
      +0       0       0       0
  2651 ;;      Temps:          0       0       0       0       0       0       0       0       0       0       0       0       
      +0       0       0       0
  2652 ;;      Totals:         0       0       2       0       0       0       0       0       0       0       0       0       
      +0       0       0       0
  2653 ;;Total ram usage:        2 bytes
  2654 ;; Hardware stack levels used:    1
  2655 ;; Hardware stack levels required when called:   10
  2656 ;; This function calls:
  2657 ;;		Nothing
  2658 ;; This function is called by:
  2659 ;;		_main
  2660 ;; This function uses a non-reentrant model
  2661 ;;
  2662                           
  2663                           	psect	text12
  2664  0017B6                     __ptext12:
  2665                           	opt stack 0
  2666  0017B6                     _init_timer1_lthread:
  2667                           	opt stack 20
  2668                           
  2669                           ;timer1_thread.c: 7: tptr->msgcount = 0;
  2670                           
  2671                           ; BSR set to: 0
  2672                           ;incstack = 0
  2673  0017B6  C1A2  FFD9         	movff	init_timer1_lthread@tptr,fsr2l
  2674  0017BA  C1A3  FFDA         	movff	init_timer1_lthread@tptr+1,fsr2h
  2675  0017BE  0E00               	movlw	0
  2676  0017C0  6EDE               	movwf	postinc2,c
  2677  0017C2  0E00               	movlw	0
  2678  0017C4  6EDD               	movwf	postdec2,c
  2679  0017C6  0012               	return	
  2680  0017C8                     __end_of_init_timer1_lthread:
  2681                           	opt stack 0
  2682                           tblptru	equ	0xFF8
  2683                           prodh	equ	0xFF4
  2684                           prodl	equ	0xFF3
  2685                           postinc0	equ	0xFEE
  2686                           wreg	equ	0xFE8
  2687                           indf1	equ	0xFE7
  2688                           fsr1h	equ	0xFE2
  2689                           fsr1l	equ	0xFE1
  2690                           indf2	equ	0xFDF
  2691                           postinc2	equ	0xFDE
  2692                           postdec2	equ	0xFDD
  2693                           fsr2h	equ	0xFDA
  2694                           fsr2l	equ	0xFD9
  2695                           status	equ	0xFD8
  2696                           
  2697 ;; *************** function _init_queues *****************
  2698 ;; Defined at:
  2699 ;;		line 194 in file "../src/messages.c"
  2700 ;; Parameters:    Size  Location     Type
  2701 ;;		None
  2702 ;; Auto vars:     Size  Location     Type
  2703 ;;		None
  2704 ;; Return value:  Size  Location     Type
  2705 ;;		None               void
  2706 ;; Registers used:
  2707 ;;		wreg, fsr2l, fsr2h, status,2, status,0, prodl, prodh, cstack
  2708 ;; Tracked objects:
  2709 ;;		On entry : 0/0
  2710 ;;		On exit  : 0/0
  2711 ;;		Unchanged: 0/0
  2712 ;; Data sizes:     COMRAM   BANK0   BANK1   BANK2   BANK3   BANK4   BANK5   BANK6   BANK7   BANK8   BANK9  BANK10  BANK1
      +1  BANK12  BANK13  BANK14
  2713 ;;      Params:         0       0       0       0       0       0       0       0       0       0       0       0       
      +0       0       0       0
  2714 ;;      Locals:         0       0       0       0       0       0       0       0       0       0       0       0       
      +0       0       0       0
  2715 ;;      Temps:          0       0       0       0       0       0       0       0       0       0       0       0       
      +0       0       0       0
  2716 ;;      Totals:         0       0       0       0       0       0       0       0       0       0       0       0       
      +0       0       0       0
  2717 ;;Total ram usage:        0 bytes
  2718 ;; Hardware stack levels used:    1
  2719 ;; Hardware stack levels required when called:   11
  2720 ;; This function calls:
  2721 ;;		_init_queue
  2722 ;; This function is called by:
  2723 ;;		_main
  2724 ;; This function uses a non-reentrant model
  2725 ;;
  2726                           
  2727                           	psect	text13
  2728  0012BE                     __ptext13:
  2729                           	opt stack 0
  2730  0012BE                     _init_queues:
  2731                           	opt stack 19
  2732                           
  2733                           ;messages.c: 195: MQ_Main_Willing_to_block = 0;
  2734                           
  2735                           ;incstack = 0
  2736  0012BE  0E00               	movlw	0
  2737  0012C0  6E2E               	movwf	_MQ_Main_Willing_to_block,c
  2738                           
  2739                           ;messages.c: 196: init_queue(&ToMainLow_MQ);
  2740  0012C2  0100               	movlb	0	; () banked
  2741  0012C4  0E00               	movlw	high _ToMainLow_MQ
  2742  0012C6  0101               	movlb	1	; () banked
  2743  0012C8  6FA3               	movwf	(init_queue@qptr+1)& (0+255),b
  2744  0012CA  0100               	movlb	0	; () banked
  2745  0012CC  0E60               	movlw	low _ToMainLow_MQ
  2746  0012CE  0101               	movlb	1	; () banked
  2747  0012D0  6FA2               	movwf	init_queue@qptr& (0+255),b
  2748  0012D2  EC9F  F008         	call	_init_queue	;wreg free
  2749                           
  2750                           ;messages.c: 197: init_queue(&ToMainHigh_MQ);
  2751  0012D6  0101               	movlb	1	; () banked
  2752  0012D8  0E01               	movlw	high _ToMainHigh_MQ
  2753  0012DA  0101               	movlb	1	; () banked
  2754  0012DC  6FA3               	movwf	(init_queue@qptr+1)& (0+255),b
  2755  0012DE  0101               	movlb	1	; () banked
  2756  0012E0  0E6C               	movlw	low _ToMainHigh_MQ
  2757  0012E2  0101               	movlb	1	; () banked
  2758  0012E4  6FA2               	movwf	init_queue@qptr& (0+255),b
  2759  0012E6  EC9F  F008         	call	_init_queue	;wreg free
  2760                           
  2761                           ;messages.c: 198: init_queue(&FromMainLow_MQ);
  2762  0012EA  0101               	movlb	1	; () banked
  2763  0012EC  0E01               	movlw	high _FromMainLow_MQ
  2764  0012EE  0101               	movlb	1	; () banked
  2765  0012F0  6FA3               	movwf	(init_queue@qptr+1)& (0+255),b
  2766  0012F2  0101               	movlb	1	; () banked
  2767  0012F4  0E36               	movlw	low _FromMainLow_MQ
  2768  0012F6  0101               	movlb	1	; () banked
  2769  0012F8  6FA2               	movwf	init_queue@qptr& (0+255),b
  2770  0012FA  EC9F  F008         	call	_init_queue	;wreg free
  2771                           
  2772                           ;messages.c: 199: init_queue(&FromMainHigh_MQ);
  2773  0012FE  0101               	movlb	1	; () banked
  2774  001300  0E01               	movlw	high _FromMainHigh_MQ
  2775  001302  0101               	movlb	1	; () banked
  2776  001304  6FA3               	movwf	(init_queue@qptr+1)& (0+255),b
  2777  001306  0101               	movlb	1	; () banked
  2778  001308  0E00               	movlw	low _FromMainHigh_MQ
  2779  00130A  0101               	movlb	1	; () banked
  2780  00130C  6FA2               	movwf	init_queue@qptr& (0+255),b
  2781  00130E  EC9F  F008         	call	_init_queue	;wreg free
  2782  001312  0012               	return	
  2783  001314                     __end_of_init_queues:
  2784                           	opt stack 0
  2785                           tblptru	equ	0xFF8
  2786                           prodh	equ	0xFF4
  2787                           prodl	equ	0xFF3
  2788                           postinc0	equ	0xFEE
  2789                           wreg	equ	0xFE8
  2790                           indf1	equ	0xFE7
  2791                           fsr1h	equ	0xFE2
  2792                           fsr1l	equ	0xFE1
  2793                           indf2	equ	0xFDF
  2794                           postinc2	equ	0xFDE
  2795                           postdec2	equ	0xFDD
  2796                           fsr2h	equ	0xFDA
  2797                           fsr2l	equ	0xFD9
  2798                           status	equ	0xFD8
  2799                           
  2800 ;; *************** function _init_queue *****************
  2801 ;; Defined at:
  2802 ;;		line 14 in file "../src/messages.c"
  2803 ;; Parameters:    Size  Location     Type
  2804 ;;  qptr            2    0[BANK1 ] PTR struct __msg_queue
  2805 ;;		 -> FromMainHigh_MQ(54), FromMainLow_MQ(54), ToMainHigh_MQ(54), ToMainLow_MQ(54), 
  2806 ;; Auto vars:     Size  Location     Type
  2807 ;;  i               1    2[BANK1 ] unsigned char 
  2808 ;; Return value:  Size  Location     Type
  2809 ;;		None               void
  2810 ;; Registers used:
  2811 ;;		wreg, fsr2l, fsr2h, status,2, status,0, prodl, prodh
  2812 ;; Tracked objects:
  2813 ;;		On entry : 0/0
  2814 ;;		On exit  : 0/0
  2815 ;;		Unchanged: 0/0
  2816 ;; Data sizes:     COMRAM   BANK0   BANK1   BANK2   BANK3   BANK4   BANK5   BANK6   BANK7   BANK8   BANK9  BANK10  BANK1
      +1  BANK12  BANK13  BANK14
  2817 ;;      Params:         0       0       2       0       0       0       0       0       0       0       0       0       
      +0       0       0       0
  2818 ;;      Locals:         0       0       1       0       0       0       0       0       0       0       0       0       
      +0       0       0       0
  2819 ;;      Temps:          0       0       0       0       0       0       0       0       0       0       0       0       
      +0       0       0       0
  2820 ;;      Totals:         0       0       3       0       0       0       0       0       0       0       0       0       
      +0       0       0       0
  2821 ;;Total ram usage:        3 bytes
  2822 ;; Hardware stack levels used:    1
  2823 ;; Hardware stack levels required when called:   10
  2824 ;; This function calls:
  2825 ;;		Nothing
  2826 ;; This function is called by:
  2827 ;;		_init_queues
  2828 ;; This function uses a non-reentrant model
  2829 ;;
  2830                           
  2831                           	psect	text14
  2832  00113E                     __ptext14:
  2833                           	opt stack 0
  2834  00113E                     _init_queue:
  2835                           	opt stack 19
  2836                           
  2837                           ;messages.c: 15: unsigned char i;
  2838                           ;messages.c: 17: qptr->cur_write_ind = 0;
  2839                           
  2840                           ;incstack = 0
  2841  00113E  0101               	movlb	1	; () banked
  2842  001140  EE20 F034          	lfsr	2,52
  2843  001144  0101               	movlb	1	; () banked
  2844  001146  51A2               	movf	init_queue@qptr& (0+255),w,b
  2845  001148  26D9               	addwf	fsr2l,f,c
  2846  00114A  0101               	movlb	1	; () banked
  2847  00114C  51A3               	movf	(init_queue@qptr+1)& (0+255),w,b
  2848  00114E  22DA               	addwfc	fsr2h,f,c
  2849  001150  0E00               	movlw	0
  2850  001152  6EDF               	movwf	indf2,c
  2851                           
  2852                           ;messages.c: 18: qptr->cur_read_ind = 0;
  2853  001154  0101               	movlb	1	; () banked
  2854  001156  EE20 F035          	lfsr	2,53
  2855  00115A  0101               	movlb	1	; () banked
  2856  00115C  51A2               	movf	init_queue@qptr& (0+255),w,b
  2857  00115E  26D9               	addwf	fsr2l,f,c
  2858  001160  0101               	movlb	1	; () banked
  2859  001162  51A3               	movf	(init_queue@qptr+1)& (0+255),w,b
  2860  001164  22DA               	addwfc	fsr2h,f,c
  2861  001166  0E00               	movlw	0
  2862  001168  6EDF               	movwf	indf2,c
  2863                           
  2864                           ; BSR set to: 1
  2865                           ;messages.c: 19: for (i = 0; i < 4; i++) {
  2866  00116A  0E00               	movlw	0
  2867  00116C  0101               	movlb	1	; () banked
  2868  00116E  6FA4               	movwf	init_queue@i& (0+255),b
  2869                           
  2870                           ; BSR set to: 1
  2871  001170  0E03               	movlw	3
  2872  001172  0101               	movlb	1	; () banked
  2873  001174  65A4               	cpfsgt	init_queue@i& (0+255),b
  2874  001176  D001               	goto	l2928
  2875  001178  0012               	return	
  2876  00117A                     l2928:
  2877                           
  2878                           ; BSR set to: 1
  2879                           ;messages.c: 20: qptr->queue[i].full = 0;
  2880  00117A  0101               	movlb	1	; () banked
  2881  00117C  51A4               	movf	init_queue@i& (0+255),w,b
  2882  00117E  0D0D               	mullw	13
  2883  001180  50F3               	movf	prodl,w,c
  2884  001182  0101               	movlb	1	; () banked
  2885  001184  25A2               	addwf	init_queue@qptr& (0+255),w,b
  2886  001186  6ED9               	movwf	fsr2l,c
  2887  001188  50F4               	movf	prodh,w,c
  2888  00118A  0101               	movlb	1	; () banked
  2889  00118C  21A3               	addwfc	(init_queue@qptr+1)& (0+255),w,b
  2890  00118E  6EDA               	movwf	fsr2h,c
  2891  001190  0E00               	movlw	0
  2892  001192  6EDF               	movwf	indf2,c
  2893                           
  2894                           ; BSR set to: 1
  2895  001194  0101               	movlb	1	; () banked
  2896  001196  2BA4               	incf	init_queue@i& (0+255),f,b
  2897                           
  2898                           ; BSR set to: 1
  2899  001198  0E03               	movlw	3
  2900  00119A  0101               	movlb	1	; () banked
  2901  00119C  65A4               	cpfsgt	init_queue@i& (0+255),b
  2902  00119E  D7ED               	goto	l2928
  2903  0011A0  0012               	return	
  2904  0011A2                     __end_of_init_queue:
  2905                           	opt stack 0
  2906                           tblptru	equ	0xFF8
  2907                           prodh	equ	0xFF4
  2908                           prodl	equ	0xFF3
  2909                           postinc0	equ	0xFEE
  2910                           wreg	equ	0xFE8
  2911                           indf1	equ	0xFE7
  2912                           fsr1h	equ	0xFE2
  2913                           fsr1l	equ	0xFE1
  2914                           indf2	equ	0xFDF
  2915                           postinc2	equ	0xFDE
  2916                           postdec2	equ	0xFDD
  2917                           fsr2h	equ	0xFDA
  2918                           fsr2l	equ	0xFD9
  2919                           status	equ	0xFD8
  2920                           
  2921 ;; *************** function _init_i2c *****************
  2922 ;; Defined at:
  2923 ;;		line 282 in file "../src/my_i2c.c"
  2924 ;; Parameters:    Size  Location     Type
  2925 ;;  ic              2    0[BANK1 ] PTR struct __i2c_comm
  2926 ;;		 -> main@ic(28), 
  2927 ;; Auto vars:     Size  Location     Type
  2928 ;;		None
  2929 ;; Return value:  Size  Location     Type
  2930 ;;		None               void
  2931 ;; Registers used:
  2932 ;;		wreg, fsr2l, fsr2h, status,2, status,0
  2933 ;; Tracked objects:
  2934 ;;		On entry : 0/0
  2935 ;;		On exit  : 0/0
  2936 ;;		Unchanged: 0/0
  2937 ;; Data sizes:     COMRAM   BANK0   BANK1   BANK2   BANK3   BANK4   BANK5   BANK6   BANK7   BANK8   BANK9  BANK10  BANK1
      +1  BANK12  BANK13  BANK14
  2938 ;;      Params:         0       0       2       0       0       0       0       0       0       0       0       0       
      +0       0       0       0
  2939 ;;      Locals:         0       0       0       0       0       0       0       0       0       0       0       0       
      +0       0       0       0
  2940 ;;      Temps:          0       0       0       0       0       0       0       0       0       0       0       0       
      +0       0       0       0
  2941 ;;      Totals:         0       0       2       0       0       0       0       0       0       0       0       0       
      +0       0       0       0
  2942 ;;Total ram usage:        2 bytes
  2943 ;; Hardware stack levels used:    1
  2944 ;; Hardware stack levels required when called:   10
  2945 ;; This function calls:
  2946 ;;		Nothing
  2947 ;; This function is called by:
  2948 ;;		_main
  2949 ;; This function uses a non-reentrant model
  2950 ;;
  2951                           
  2952                           	psect	text15
  2953  0010D4                     __ptext15:
  2954                           	opt stack 0
  2955  0010D4                     _init_i2c:
  2956                           	opt stack 20
  2957                           
  2958                           ;my_i2c.c: 283: ic_ptr = ic;
  2959                           
  2960                           ; BSR set to: 1
  2961                           ;incstack = 0
  2962  0010D4  0101               	movlb	1	; () banked
  2963  0010D6  0100               	movlb	0	; () banked
  2964  0010D8  C1A3  F0D0         	movff	init_i2c@ic+1,_ic_ptr+1
  2965  0010DC  0101               	movlb	1	; () banked
  2966  0010DE  0100               	movlb	0	; () banked
  2967  0010E0  C1A2  F0CF         	movff	init_i2c@ic,_ic_ptr
  2968                           
  2969                           ; BSR set to: 0
  2970                           ;my_i2c.c: 284: ic_ptr->buflen = 0;
  2971  0010E4  0100               	movlb	0	; () banked
  2972  0010E6  EE20 F00A          	lfsr	2,10
  2973  0010EA  0100               	movlb	0	; () banked
  2974  0010EC  51CF               	movf	_ic_ptr& (0+255),w,b
  2975  0010EE  26D9               	addwf	fsr2l,f,c
  2976  0010F0  0100               	movlb	0	; () banked
  2977  0010F2  51D0               	movf	(_ic_ptr+1)& (0+255),w,b
  2978  0010F4  22DA               	addwfc	fsr2h,f,c
  2979  0010F6  0E00               	movlw	0
  2980  0010F8  6EDF               	movwf	indf2,c
  2981                           
  2982                           ; BSR set to: 0
  2983                           ;my_i2c.c: 285: ic_ptr->event_count = 0;
  2984  0010FA  0100               	movlb	0	; () banked
  2985  0010FC  EE20 F00B          	lfsr	2,11
  2986  001100  0100               	movlb	0	; () banked
  2987  001102  51CF               	movf	_ic_ptr& (0+255),w,b
  2988  001104  26D9               	addwf	fsr2l,f,c
  2989  001106  0100               	movlb	0	; () banked
  2990  001108  51D0               	movf	(_ic_ptr+1)& (0+255),w,b
  2991  00110A  22DA               	addwfc	fsr2h,f,c
  2992  00110C  0E00               	movlw	0
  2993  00110E  6EDF               	movwf	indf2,c
  2994                           
  2995                           ; BSR set to: 0
  2996                           ;my_i2c.c: 286: ic_ptr->status = 0x5;
  2997  001110  0100               	movlb	0	; () banked
  2998  001112  EE20 F00C          	lfsr	2,12
  2999  001116  0100               	movlb	0	; () banked
  3000  001118  51CF               	movf	_ic_ptr& (0+255),w,b
  3001  00111A  26D9               	addwf	fsr2l,f,c
  3002  00111C  0100               	movlb	0	; () banked
  3003  00111E  51D0               	movf	(_ic_ptr+1)& (0+255),w,b
  3004  001120  22DA               	addwfc	fsr2h,f,c
  3005  001122  0E05               	movlw	5
  3006  001124  6EDF               	movwf	indf2,c
  3007                           
  3008                           ; BSR set to: 0
  3009                           ;my_i2c.c: 287: ic_ptr->error_count = 0;
  3010  001126  0100               	movlb	0	; () banked
  3011  001128  EE20 F00E          	lfsr	2,14
  3012  00112C  0100               	movlb	0	; () banked
  3013  00112E  51CF               	movf	_ic_ptr& (0+255),w,b
  3014  001130  26D9               	addwf	fsr2l,f,c
  3015  001132  0100               	movlb	0	; () banked
  3016  001134  51D0               	movf	(_ic_ptr+1)& (0+255),w,b
  3017  001136  22DA               	addwfc	fsr2h,f,c
  3018  001138  0E00               	movlw	0
  3019  00113A  6EDF               	movwf	indf2,c
  3020                           
  3021                           ; BSR set to: 0
  3022  00113C  0012               	return	
  3023  00113E                     __end_of_init_i2c:
  3024                           	opt stack 0
  3025                           tblptru	equ	0xFF8
  3026                           prodh	equ	0xFF4
  3027                           prodl	equ	0xFF3
  3028                           postinc0	equ	0xFEE
  3029                           wreg	equ	0xFE8
  3030                           indf1	equ	0xFE7
  3031                           fsr1h	equ	0xFE2
  3032                           fsr1l	equ	0xFE1
  3033                           indf2	equ	0xFDF
  3034                           postinc2	equ	0xFDE
  3035                           postdec2	equ	0xFDD
  3036                           fsr2h	equ	0xFDA
  3037                           fsr2l	equ	0xFD9
  3038                           status	equ	0xFD8
  3039                           
  3040 ;; *************** function _i2c_configure_slave *****************
  3041 ;; Defined at:
  3042 ;;		line 293 in file "../src/my_i2c.c"
  3043 ;; Parameters:    Size  Location     Type
  3044 ;;  addr            1    wreg     unsigned char 
  3045 ;; Auto vars:     Size  Location     Type
  3046 ;;  addr            1    0[BANK1 ] unsigned char 
  3047 ;; Return value:  Size  Location     Type
  3048 ;;		None               void
  3049 ;; Registers used:
  3050 ;;		wreg, status,2, status,0
  3051 ;; Tracked objects:
  3052 ;;		On entry : 0/0
  3053 ;;		On exit  : 0/0
  3054 ;;		Unchanged: 0/0
  3055 ;; Data sizes:     COMRAM   BANK0   BANK1   BANK2   BANK3   BANK4   BANK5   BANK6   BANK7   BANK8   BANK9  BANK10  BANK1
      +1  BANK12  BANK13  BANK14
  3056 ;;      Params:         0       0       0       0       0       0       0       0       0       0       0       0       
      +0       0       0       0
  3057 ;;      Locals:         0       0       1       0       0       0       0       0       0       0       0       0       
      +0       0       0       0
  3058 ;;      Temps:          0       0       0       0       0       0       0       0       0       0       0       0       
      +0       0       0       0
  3059 ;;      Totals:         0       0       1       0       0       0       0       0       0       0       0       0       
      +0       0       0       0
  3060 ;;Total ram usage:        1 bytes
  3061 ;; Hardware stack levels used:    1
  3062 ;; Hardware stack levels required when called:   10
  3063 ;; This function calls:
  3064 ;;		Nothing
  3065 ;; This function is called by:
  3066 ;;		_main
  3067 ;; This function uses a non-reentrant model
  3068 ;;
  3069                           
  3070                           	psect	text16
  3071  001708                     __ptext16:
  3072                           	opt stack 0
  3073  001708                     _i2c_configure_slave:
  3074                           	opt stack 20
  3075                           
  3076                           ; BSR set to: 0
  3077                           ;incstack = 0
  3078                           ;i2c_configure_slave@addr stored from wreg
  3079  001708  0101               	movlb	1	; () banked
  3080  00170A  6FA2               	movwf	i2c_configure_slave@addr& (0+255),b
  3081                           
  3082                           ; BSR set to: 1
  3083                           ;my_i2c.c: 302: TRISBbits.TRISB4 = 1;
  3084  00170C  8893               	bsf	3987,4,c	;volatile
  3085                           
  3086                           ;my_i2c.c: 303: TRISBbits.TRISB5 = 1;
  3087  00170E  8A93               	bsf	3987,5,c	;volatile
  3088                           
  3089                           ; BSR set to: 1
  3090                           ;my_i2c.c: 311: SSPADD = addr;
  3091  001710  C1A2  FFC8         	movff	i2c_configure_slave@addr,4040	;volatile
  3092                           
  3093                           ; BSR set to: 1
  3094                           ;my_i2c.c: 313: SSPSTAT = 0x0;
  3095  001714  0E00               	movlw	0
  3096  001716  6EC7               	movwf	4039,c	;volatile
  3097                           
  3098                           ; BSR set to: 1
  3099                           ;my_i2c.c: 314: SSPCON1 = 0x0;
  3100  001718  0E00               	movlw	0
  3101  00171A  6EC6               	movwf	4038,c	;volatile
  3102                           
  3103                           ; BSR set to: 1
  3104                           ;my_i2c.c: 315: SSPCON2 = 0x0;
  3105  00171C  0E00               	movlw	0
  3106  00171E  6EC5               	movwf	4037,c	;volatile
  3107                           
  3108                           ; BSR set to: 1
  3109                           ;my_i2c.c: 316: SSPCON1 |= 0x0E;
  3110  001720  0E0E               	movlw	14
  3111  001722  12C6               	iorwf	4038,f,c	;volatile
  3112                           
  3113                           ; BSR set to: 1
  3114                           ;my_i2c.c: 317: SSPSTAT |= 0b10000000;
  3115  001724  8EC7               	bsf	4039,7,c	;volatile
  3116                           
  3117                           ; BSR set to: 1
  3118                           ;my_i2c.c: 332: PORTBbits.SCL1 = 1;
  3119  001726  8881               	bsf	3969,4,c	;volatile
  3120                           
  3121                           ; BSR set to: 1
  3122                           ;my_i2c.c: 333: PORTBbits.SDA1 = 1;
  3123  001728  8A81               	bsf	3969,5,c	;volatile
  3124                           
  3125                           ; BSR set to: 1
  3126                           ;my_i2c.c: 342: SSPCON2bits.SEN = 1;
  3127  00172A  80C5               	bsf	4037,0,c	;volatile
  3128                           
  3129                           ; BSR set to: 1
  3130                           ;my_i2c.c: 343: SSPCON1 |= 0b00100000;
  3131  00172C  8AC6               	bsf	4038,5,c	;volatile
  3132                           
  3133                           ; BSR set to: 1
  3134  00172E  0012               	return	
  3135  001730                     __end_of_i2c_configure_slave:
  3136                           	opt stack 0
  3137                           tblptru	equ	0xFF8
  3138                           prodh	equ	0xFF4
  3139                           prodl	equ	0xFF3
  3140                           postinc0	equ	0xFEE
  3141                           wreg	equ	0xFE8
  3142                           indf1	equ	0xFE7
  3143                           fsr1h	equ	0xFE2
  3144                           fsr1l	equ	0xFE1
  3145                           indf2	equ	0xFDF
  3146                           postinc2	equ	0xFDE
  3147                           postdec2	equ	0xFDD
  3148                           fsr2h	equ	0xFDA
  3149                           fsr2l	equ	0xFD9
  3150                           status	equ	0xFD8
  3151                           
  3152 ;; *************** function _enable_interrupts *****************
  3153 ;; Defined at:
  3154 ;;		line 14 in file "../src/interrupts.c"
  3155 ;; Parameters:    Size  Location     Type
  3156 ;;		None
  3157 ;; Auto vars:     Size  Location     Type
  3158 ;;		None
  3159 ;; Return value:  Size  Location     Type
  3160 ;;		None               void
  3161 ;; Registers used:
  3162 ;;		None
  3163 ;; Tracked objects:
  3164 ;;		On entry : 0/0
  3165 ;;		On exit  : 0/0
  3166 ;;		Unchanged: 0/0
  3167 ;; Data sizes:     COMRAM   BANK0   BANK1   BANK2   BANK3   BANK4   BANK5   BANK6   BANK7   BANK8   BANK9  BANK10  BANK1
      +1  BANK12  BANK13  BANK14
  3168 ;;      Params:         0       0       0       0       0       0       0       0       0       0       0       0       
      +0       0       0       0
  3169 ;;      Locals:         0       0       0       0       0       0       0       0       0       0       0       0       
      +0       0       0       0
  3170 ;;      Temps:          0       0       0       0       0       0       0       0       0       0       0       0       
      +0       0       0       0
  3171 ;;      Totals:         0       0       0       0       0       0       0       0       0       0       0       0       
      +0       0       0       0
  3172 ;;Total ram usage:        0 bytes
  3173 ;; Hardware stack levels used:    1
  3174 ;; Hardware stack levels required when called:   10
  3175 ;; This function calls:
  3176 ;;		Nothing
  3177 ;; This function is called by:
  3178 ;;		_main
  3179 ;; This function uses a non-reentrant model
  3180 ;;
  3181                           
  3182                           	psect	text17
  3183  00181C                     __ptext17:
  3184                           	opt stack 0
  3185  00181C                     _enable_interrupts:
  3186                           	opt stack 20
  3187                           
  3188                           ;interrupts.c: 17: RCONbits.IPEN = 1;
  3189                           
  3190                           ; BSR set to: 1
  3191                           ;incstack = 0
  3192  00181C  8ED0               	bsf	4048,7,c	;volatile
  3193                           
  3194                           ;interrupts.c: 18: INTCONbits.GIEH = 1;
  3195  00181E  8EF2               	bsf	intcon,7,c	;volatile
  3196                           
  3197                           ;interrupts.c: 20: INTCONbits.GIEL = 1;
  3198  001820  8CF2               	bsf	intcon,6,c	;volatile
  3199  001822  0012               	return	
  3200  001824                     __end_of_enable_interrupts:
  3201                           	opt stack 0
  3202                           tblptru	equ	0xFF8
  3203                           prodh	equ	0xFF4
  3204                           prodl	equ	0xFF3
  3205                           intcon	equ	0xFF2
  3206                           postinc0	equ	0xFEE
  3207                           wreg	equ	0xFE8
  3208                           indf1	equ	0xFE7
  3209                           fsr1h	equ	0xFE2
  3210                           fsr1l	equ	0xFE1
  3211                           indf2	equ	0xFDF
  3212                           postinc2	equ	0xFDE
  3213                           postdec2	equ	0xFDD
  3214                           fsr2h	equ	0xFDA
  3215                           fsr2l	equ	0xFD9
  3216                           status	equ	0xFD8
  3217                           
  3218 ;; *************** function _blip *****************
  3219 ;; Defined at:
  3220 ;;		line 3 in file "../src/debug.c"
  3221 ;; Parameters:    Size  Location     Type
  3222 ;;		None
  3223 ;; Auto vars:     Size  Location     Type
  3224 ;;		None
  3225 ;; Return value:  Size  Location     Type
  3226 ;;		None               void
  3227 ;; Registers used:
  3228 ;;		None
  3229 ;; Tracked objects:
  3230 ;;		On entry : 0/0
  3231 ;;		On exit  : 0/0
  3232 ;;		Unchanged: 0/0
  3233 ;; Data sizes:     COMRAM   BANK0   BANK1   BANK2   BANK3   BANK4   BANK5   BANK6   BANK7   BANK8   BANK9  BANK10  BANK1
      +1  BANK12  BANK13  BANK14
  3234 ;;      Params:         0       0       0       0       0       0       0       0       0       0       0       0       
      +0       0       0       0
  3235 ;;      Locals:         0       0       0       0       0       0       0       0       0       0       0       0       
      +0       0       0       0
  3236 ;;      Temps:          0       0       0       0       0       0       0       0       0       0       0       0       
      +0       0       0       0
  3237 ;;      Totals:         0       0       0       0       0       0       0       0       0       0       0       0       
      +0       0       0       0
  3238 ;;Total ram usage:        0 bytes
  3239 ;; Hardware stack levels used:    1
  3240 ;; Hardware stack levels required when called:   10
  3241 ;; This function calls:
  3242 ;;		Nothing
  3243 ;; This function is called by:
  3244 ;;		_main
  3245 ;; This function uses a non-reentrant model
  3246 ;;
  3247                           
  3248                           	psect	text18
  3249  001824                     __ptext18:
  3250                           	opt stack 0
  3251  001824                     _blip:
  3252                           	opt stack 20
  3253                           
  3254                           ;debug.c: 5: LATDbits.LD2 = 0;
  3255                           
  3256                           ;incstack = 0
  3257  001824  948C               	bcf	3980,2,c	;volatile
  3258                           
  3259                           ;debug.c: 6: LATDbits.LD2 = 1;
  3260  001826  848C               	bsf	3980,2,c	;volatile
  3261                           
  3262                           ;debug.c: 7: LATDbits.LD2 = 0;
  3263  001828  948C               	bcf	3980,2,c	;volatile
  3264  00182A  0012               	return	
  3265  00182C                     __end_of_blip:
  3266                           	opt stack 0
  3267                           tblptru	equ	0xFF8
  3268                           prodh	equ	0xFF4
  3269                           prodl	equ	0xFF3
  3270                           intcon	equ	0xFF2
  3271                           postinc0	equ	0xFEE
  3272                           wreg	equ	0xFE8
  3273                           indf1	equ	0xFE7
  3274                           fsr1h	equ	0xFE2
  3275                           fsr1l	equ	0xFE1
  3276                           indf2	equ	0xFDF
  3277                           postinc2	equ	0xFDE
  3278                           postdec2	equ	0xFDD
  3279                           fsr2h	equ	0xFDA
  3280                           fsr2l	equ	0xFD9
  3281                           status	equ	0xFD8
  3282                           
  3283 ;; *************** function _ToMainLow_recvmsg *****************
  3284 ;; Defined at:
  3285 ;;		line 112 in file "../src/messages.c"
  3286 ;; Parameters:    Size  Location     Type
  3287 ;;  maxlength       1    wreg     unsigned char 
  3288 ;;  msgtype         2   24[BANK1 ] PTR unsigned char 
  3289 ;;		 -> main@msgtype(1), 
  3290 ;;  data            2   26[BANK1 ] PTR void 
  3291 ;;		 -> main@msgbuffer(11), 
  3292 ;; Auto vars:     Size  Location     Type
  3293 ;;  maxlength       1   28[BANK1 ] unsigned char 
  3294 ;; Return value:  Size  Location     Type
  3295 ;;                  1    wreg      char 
  3296 ;; Registers used:
  3297 ;;		wreg, fsr1l, fsr1h, fsr2l, fsr2h, status,2, status,0, prodl, prodh, cstack
  3298 ;; Tracked objects:
  3299 ;;		On entry : 0/0
  3300 ;;		On exit  : 0/0
  3301 ;;		Unchanged: 0/0
  3302 ;; Data sizes:     COMRAM   BANK0   BANK1   BANK2   BANK3   BANK4   BANK5   BANK6   BANK7   BANK8   BANK9  BANK10  BANK1
      +1  BANK12  BANK13  BANK14
  3303 ;;      Params:         0       0       4       0       0       0       0       0       0       0       0       0       
      +0       0       0       0
  3304 ;;      Locals:         0       0       1       0       0       0       0       0       0       0       0       0       
      +0       0       0       0
  3305 ;;      Temps:          0       0       0       0       0       0       0       0       0       0       0       0       
      +0       0       0       0
  3306 ;;      Totals:         0       0       5       0       0       0       0       0       0       0       0       0       
      +0       0       0       0
  3307 ;;Total ram usage:        5 bytes
  3308 ;; Hardware stack levels used:    1
  3309 ;; Hardware stack levels required when called:   12
  3310 ;; This function calls:
  3311 ;;		_recv_msg
  3312 ;; This function is called by:
  3313 ;;		_main
  3314 ;; This function uses a non-reentrant model
  3315 ;;
  3316                           
  3317                           	psect	text19
  3318  0014E8                     __ptext19:
  3319                           	opt stack 0
  3320  0014E8                     _ToMainLow_recvmsg:
  3321                           	opt stack 18
  3322                           
  3323                           ;incstack = 0
  3324                           ;ToMainLow_recvmsg@maxlength stored from wreg
  3325  0014E8  0101               	movlb	1	; () banked
  3326  0014EA  6FBE               	movwf	ToMainLow_recvmsg@maxlength& (0+255),b
  3327                           
  3328                           ; BSR set to: 1
  3329                           ;messages.c: 118: return (recv_msg(&ToMainLow_MQ, maxlength, msgtype, data));
  3330  0014EC  0100               	movlb	0	; () banked
  3331  0014EE  0E00               	movlw	high _ToMainLow_MQ
  3332  0014F0  0101               	movlb	1	; () banked
  3333  0014F2  6FAD               	movwf	(recv_msg@qptr+1)& (0+255),b
  3334  0014F4  0100               	movlb	0	; () banked
  3335  0014F6  0E60               	movlw	low _ToMainLow_MQ
  3336  0014F8  0101               	movlb	1	; () banked
  3337  0014FA  6FAC               	movwf	recv_msg@qptr& (0+255),b
  3338  0014FC  C1BE  F1AE         	movff	ToMainLow_recvmsg@maxlength,recv_msg@maxlength
  3339  001500  0101               	movlb	1	; () banked
  3340  001502  C1BB  F1B0         	movff	ToMainLow_recvmsg@msgtype+1,recv_msg@msgtype+1
  3341  001506  0101               	movlb	1	; () banked
  3342  001508  C1BA  F1AF         	movff	ToMainLow_recvmsg@msgtype,recv_msg@msgtype
  3343  00150C  0101               	movlb	1	; () banked
  3344  00150E  C1BD  F1B2         	movff	ToMainLow_recvmsg@data+1,recv_msg@data+1
  3345  001512  0101               	movlb	1	; () banked
  3346  001514  C1BC  F1B1         	movff	ToMainLow_recvmsg@data,recv_msg@data
  3347  001518  EC74  F004         	call	_recv_msg	;wreg free
  3348  00151C  0012               	return	
  3349  00151E                     __end_of_ToMainLow_recvmsg:
  3350                           	opt stack 0
  3351                           tblptru	equ	0xFF8
  3352                           prodh	equ	0xFF4
  3353                           prodl	equ	0xFF3
  3354                           intcon	equ	0xFF2
  3355                           postinc0	equ	0xFEE
  3356                           wreg	equ	0xFE8
  3357                           indf1	equ	0xFE7
  3358                           fsr1h	equ	0xFE2
  3359                           fsr1l	equ	0xFE1
  3360                           indf2	equ	0xFDF
  3361                           postinc2	equ	0xFDE
  3362                           postdec2	equ	0xFDD
  3363                           fsr2h	equ	0xFDA
  3364                           fsr2l	equ	0xFD9
  3365                           status	equ	0xFD8
  3366                           
  3367 ;; *************** function _ToMainHigh_recvmsg *****************
  3368 ;; Defined at:
  3369 ;;		line 135 in file "../src/messages.c"
  3370 ;; Parameters:    Size  Location     Type
  3371 ;;  maxlength       1    wreg     unsigned char 
  3372 ;;  msgtype         2   24[BANK1 ] PTR unsigned char 
  3373 ;;		 -> main@msgtype(1), 
  3374 ;;  data            2   26[BANK1 ] PTR void 
  3375 ;;		 -> main@msgbuffer(11), 
  3376 ;; Auto vars:     Size  Location     Type
  3377 ;;  maxlength       1   28[BANK1 ] unsigned char 
  3378 ;; Return value:  Size  Location     Type
  3379 ;;                  1    wreg      char 
  3380 ;; Registers used:
  3381 ;;		wreg, fsr1l, fsr1h, fsr2l, fsr2h, status,2, status,0, prodl, prodh, cstack
  3382 ;; Tracked objects:
  3383 ;;		On entry : 0/0
  3384 ;;		On exit  : 0/0
  3385 ;;		Unchanged: 0/0
  3386 ;; Data sizes:     COMRAM   BANK0   BANK1   BANK2   BANK3   BANK4   BANK5   BANK6   BANK7   BANK8   BANK9  BANK10  BANK1
      +1  BANK12  BANK13  BANK14
  3387 ;;      Params:         0       0       4       0       0       0       0       0       0       0       0       0       
      +0       0       0       0
  3388 ;;      Locals:         0       0       1       0       0       0       0       0       0       0       0       0       
      +0       0       0       0
  3389 ;;      Temps:          0       0       0       0       0       0       0       0       0       0       0       0       
      +0       0       0       0
  3390 ;;      Totals:         0       0       5       0       0       0       0       0       0       0       0       0       
      +0       0       0       0
  3391 ;;Total ram usage:        5 bytes
  3392 ;; Hardware stack levels used:    1
  3393 ;; Hardware stack levels required when called:   12
  3394 ;; This function calls:
  3395 ;;		_recv_msg
  3396 ;; This function is called by:
  3397 ;;		_main
  3398 ;; This function uses a non-reentrant model
  3399 ;;
  3400                           
  3401                           	psect	text20
  3402  00151E                     __ptext20:
  3403                           	opt stack 0
  3404  00151E                     _ToMainHigh_recvmsg:
  3405                           	opt stack 18
  3406                           
  3407                           ;incstack = 0
  3408                           ;ToMainHigh_recvmsg@maxlength stored from wreg
  3409  00151E  0101               	movlb	1	; () banked
  3410  001520  6FBE               	movwf	ToMainHigh_recvmsg@maxlength& (0+255),b
  3411                           
  3412                           ; BSR set to: 1
  3413                           ;messages.c: 141: return (recv_msg(&ToMainHigh_MQ, maxlength, msgtype, data));
  3414  001522  0101               	movlb	1	; () banked
  3415  001524  0E01               	movlw	high _ToMainHigh_MQ
  3416  001526  0101               	movlb	1	; () banked
  3417  001528  6FAD               	movwf	(recv_msg@qptr+1)& (0+255),b
  3418  00152A  0101               	movlb	1	; () banked
  3419  00152C  0E6C               	movlw	low _ToMainHigh_MQ
  3420  00152E  0101               	movlb	1	; () banked
  3421  001530  6FAC               	movwf	recv_msg@qptr& (0+255),b
  3422  001532  C1BE  F1AE         	movff	ToMainHigh_recvmsg@maxlength,recv_msg@maxlength
  3423  001536  0101               	movlb	1	; () banked
  3424  001538  C1BB  F1B0         	movff	ToMainHigh_recvmsg@msgtype+1,recv_msg@msgtype+1
  3425  00153C  0101               	movlb	1	; () banked
  3426  00153E  C1BA  F1AF         	movff	ToMainHigh_recvmsg@msgtype,recv_msg@msgtype
  3427  001542  0101               	movlb	1	; () banked
  3428  001544  C1BD  F1B2         	movff	ToMainHigh_recvmsg@data+1,recv_msg@data+1
  3429  001548  0101               	movlb	1	; () banked
  3430  00154A  C1BC  F1B1         	movff	ToMainHigh_recvmsg@data,recv_msg@data
  3431  00154E  EC74  F004         	call	_recv_msg	;wreg free
  3432  001552  0012               	return	
  3433  001554                     __end_of_ToMainHigh_recvmsg:
  3434                           	opt stack 0
  3435                           tblptru	equ	0xFF8
  3436                           prodh	equ	0xFF4
  3437                           prodl	equ	0xFF3
  3438                           intcon	equ	0xFF2
  3439                           postinc0	equ	0xFEE
  3440                           wreg	equ	0xFE8
  3441                           indf1	equ	0xFE7
  3442                           fsr1h	equ	0xFE2
  3443                           fsr1l	equ	0xFE1
  3444                           indf2	equ	0xFDF
  3445                           postinc2	equ	0xFDE
  3446                           postdec2	equ	0xFDD
  3447                           fsr2h	equ	0xFDA
  3448                           fsr2l	equ	0xFD9
  3449                           status	equ	0xFD8
  3450                           
  3451 ;; *************** function _recv_msg *****************
  3452 ;; Defined at:
  3453 ;;		line 63 in file "../src/messages.c"
  3454 ;; Parameters:    Size  Location     Type
  3455 ;;  qptr            2   10[BANK1 ] PTR struct __msg_queue
  3456 ;;		 -> FromMainHigh_MQ(54), FromMainLow_MQ(54), ToMainHigh_MQ(54), ToMainLow_MQ(54), 
  3457 ;;  maxlength       1   12[BANK1 ] unsigned char 
  3458 ;;  msgtype         2   13[BANK1 ] PTR unsigned char 
  3459 ;;		 -> timer0_int_handler@msgtype(2), main@msgtype(1), 
  3460 ;;  data            2   15[BANK1 ] PTR void 
  3461 ;;		 -> timer0_int_handler@val(2), main@msgbuffer(11), 
  3462 ;; Auto vars:     Size  Location     Type
  3463 ;;  qmsg            2   22[BANK1 ] PTR struct __msg
  3464 ;;		 -> FromMainLow_MQ.queue(52), FromMainHigh_MQ.queue(52), ToMainHigh_MQ.queue(52), ToMainLow_MQ.queue(52), 
  3465 ;;		 -> FromMainHigh_MQ(54), FromMainLow_MQ(54), ToMainHigh_MQ(54), ToMainLow_MQ(54), 
  3466 ;;  tlength         2   20[BANK1 ] unsigned int 
  3467 ;;  slot            1   19[BANK1 ] unsigned char 
  3468 ;; Return value:  Size  Location     Type
  3469 ;;                  1    wreg      char 
  3470 ;; Registers used:
  3471 ;;		wreg, fsr1l, fsr1h, fsr2l, fsr2h, status,2, status,0, prodl, prodh, cstack
  3472 ;; Tracked objects:
  3473 ;;		On entry : 0/0
  3474 ;;		On exit  : 0/0
  3475 ;;		Unchanged: 0/0
  3476 ;; Data sizes:     COMRAM   BANK0   BANK1   BANK2   BANK3   BANK4   BANK5   BANK6   BANK7   BANK8   BANK9  BANK10  BANK1
      +1  BANK12  BANK13  BANK14
  3477 ;;      Params:         0       0       7       0       0       0       0       0       0       0       0       0       
      +0       0       0       0
  3478 ;;      Locals:         0       0       5       0       0       0       0       0       0       0       0       0       
      +0       0       0       0
  3479 ;;      Temps:          0       0       2       0       0       0       0       0       0       0       0       0       
      +0       0       0       0
  3480 ;;      Totals:         0       0      14       0       0       0       0       0       0       0       0       0       
      +0       0       0       0
  3481 ;;Total ram usage:       14 bytes
  3482 ;; Hardware stack levels used:    1
  3483 ;; Hardware stack levels required when called:   11
  3484 ;; This function calls:
  3485 ;;		_memcpy
  3486 ;; This function is called by:
  3487 ;;		_ToMainLow_recvmsg
  3488 ;;		_ToMainHigh_recvmsg
  3489 ;;		_FromMainLow_recvmsg
  3490 ;; This function uses a non-reentrant model
  3491 ;;
  3492                           
  3493                           	psect	text21
  3494  0008E8                     __ptext21:
  3495                           	opt stack 0
  3496  0008E8                     _recv_msg:
  3497                           	opt stack 18
  3498                           
  3499                           ;messages.c: 64: unsigned char slot;
  3500                           ;messages.c: 68: msg *qmsg;
  3501                           ;messages.c: 69: size_t tlength;
  3502                           ;messages.c: 72: slot = qptr->cur_read_ind;
  3503                           
  3504                           ;incstack = 0
  3505  0008E8  0101               	movlb	1	; () banked
  3506  0008EA  EE20 F035          	lfsr	2,53
  3507  0008EE  0101               	movlb	1	; () banked
  3508  0008F0  51AC               	movf	recv_msg@qptr& (0+255),w,b
  3509  0008F2  26D9               	addwf	fsr2l,f,c
  3510  0008F4  0101               	movlb	1	; () banked
  3511  0008F6  51AD               	movf	(recv_msg@qptr+1)& (0+255),w,b
  3512  0008F8  22DA               	addwfc	fsr2h,f,c
  3513  0008FA  50DF               	movf	indf2,w,c
  3514  0008FC  0101               	movlb	1	; () banked
  3515  0008FE  6FB5               	movwf	recv_msg@slot& (0+255),b
  3516                           
  3517                           ; BSR set to: 1
  3518                           ;messages.c: 73: qmsg = &(qptr->queue[slot]);
  3519  000900  0101               	movlb	1	; () banked
  3520  000902  51B5               	movf	recv_msg@slot& (0+255),w,b
  3521  000904  0D0D               	mullw	13
  3522  000906  50F3               	movf	prodl,w,c
  3523  000908  0101               	movlb	1	; () banked
  3524  00090A  25AC               	addwf	recv_msg@qptr& (0+255),w,b
  3525  00090C  0101               	movlb	1	; () banked
  3526  00090E  6FB8               	movwf	recv_msg@qmsg& (0+255),b
  3527  000910  50F4               	movf	prodh,w,c
  3528  000912  0101               	movlb	1	; () banked
  3529  000914  21AD               	addwfc	(recv_msg@qptr+1)& (0+255),w,b
  3530  000916  0101               	movlb	1	; () banked
  3531  000918  6FB9               	movwf	(recv_msg@qmsg+1)& (0+255),b
  3532                           
  3533                           ; BSR set to: 1
  3534                           ;messages.c: 74: if (qmsg->full == 1) {
  3535  00091A  0E01               	movlw	1
  3536  00091C  C1B8  FFD9         	movff	recv_msg@qmsg,fsr2l
  3537  000920  C1B9  FFDA         	movff	recv_msg@qmsg+1,fsr2h
  3538  000924  62DF               	cpfseq	indf2,c
  3539  000926  D06D               	goto	l2962
  3540                           
  3541                           ; BSR set to: 1
  3542                           ;messages.c: 76: if (qmsg->length > maxlength) {
  3543  000928  0101               	movlb	1	; () banked
  3544  00092A  EE20 F001          	lfsr	2,1
  3545  00092E  0101               	movlb	1	; () banked
  3546  000930  51B8               	movf	recv_msg@qmsg& (0+255),w,b
  3547  000932  26D9               	addwf	fsr2l,f,c
  3548  000934  0101               	movlb	1	; () banked
  3549  000936  51B9               	movf	(recv_msg@qmsg+1)& (0+255),w,b
  3550  000938  22DA               	addwfc	fsr2h,f,c
  3551  00093A  50DF               	movf	indf2,w,c
  3552  00093C  0101               	movlb	1	; () banked
  3553  00093E  5DAE               	subwf	recv_msg@maxlength& (0+255),w,b
  3554  000940  B0D8               	btfsc	status,0,c
  3555  000942  D002               	goto	l2946
  3556                           
  3557                           ; BSR set to: 1
  3558                           ;messages.c: 77: return (-3);
  3559  000944  0EFD               	movlw	253
  3560  000946  0012               	return	
  3561  000948                     l2946:
  3562                           
  3563                           ; BSR set to: 1
  3564                           ;messages.c: 78: }
  3565                           ;messages.c: 80: tlength = qmsg->length;
  3566  000948  0101               	movlb	1	; () banked
  3567  00094A  EE20 F001          	lfsr	2,1
  3568  00094E  0101               	movlb	1	; () banked
  3569  000950  51B8               	movf	recv_msg@qmsg& (0+255),w,b
  3570  000952  26D9               	addwf	fsr2l,f,c
  3571  000954  0101               	movlb	1	; () banked
  3572  000956  51B9               	movf	(recv_msg@qmsg+1)& (0+255),w,b
  3573  000958  22DA               	addwfc	fsr2h,f,c
  3574  00095A  50DF               	movf	indf2,w,c
  3575  00095C  0101               	movlb	1	; () banked
  3576  00095E  6FB3               	movwf	??_recv_msg& (0+255),b
  3577  000960  0101               	movlb	1	; () banked
  3578  000962  51B3               	movf	??_recv_msg& (0+255),w,b
  3579  000964  0101               	movlb	1	; () banked
  3580  000966  6FB6               	movwf	recv_msg@tlength& (0+255),b
  3581  000968  0101               	movlb	1	; () banked
  3582  00096A  6BB7               	clrf	(recv_msg@tlength+1)& (0+255),b
  3583                           
  3584                           ; BSR set to: 1
  3585                           ;messages.c: 81: memcpy(data, qmsg->data, tlength);
  3586  00096C  0101               	movlb	1	; () banked
  3587  00096E  C1B2  F1A3         	movff	recv_msg@data+1,memcpy@d1+1
  3588  000972  0101               	movlb	1	; () banked
  3589  000974  C1B1  F1A2         	movff	recv_msg@data,memcpy@d1
  3590  000978  0E03               	movlw	3
  3591  00097A  0101               	movlb	1	; () banked
  3592  00097C  25B8               	addwf	recv_msg@qmsg& (0+255),w,b
  3593  00097E  0101               	movlb	1	; () banked
  3594  000980  6FB3               	movwf	??_recv_msg& (0+255),b
  3595  000982  0E00               	movlw	0
  3596  000984  0101               	movlb	1	; () banked
  3597  000986  21B9               	addwfc	(recv_msg@qmsg+1)& (0+255),w,b
  3598  000988  0101               	movlb	1	; () banked
  3599  00098A  6FB4               	movwf	(??_recv_msg+1)& (0+255),b
  3600  00098C  C1B3  F1A4         	movff	??_recv_msg,memcpy@s1
  3601  000990  C1B4  F1A5         	movff	??_recv_msg+1,memcpy@s1+1
  3602  000994  C1B6  F1A6         	movff	recv_msg@tlength,memcpy@n
  3603  000998  C1B7  F1A7         	movff	recv_msg@tlength+1,memcpy@n+1
  3604  00099C  EC8A  F009         	call	_memcpy	;wreg free
  3605                           
  3606                           ;messages.c: 87: qptr->cur_read_ind = (qptr->cur_read_ind + 1) % 4;
  3607  0009A0  0101               	movlb	1	; () banked
  3608  0009A2  EE20 F035          	lfsr	2,53
  3609  0009A6  0101               	movlb	1	; () banked
  3610  0009A8  51AC               	movf	recv_msg@qptr& (0+255),w,b
  3611  0009AA  26D9               	addwf	fsr2l,f,c
  3612  0009AC  0101               	movlb	1	; () banked
  3613  0009AE  51AD               	movf	(recv_msg@qptr+1)& (0+255),w,b
  3614  0009B0  22DA               	addwfc	fsr2h,f,c
  3615  0009B2  0101               	movlb	1	; () banked
  3616  0009B4  EE10 F035          	lfsr	1,53
  3617  0009B8  0101               	movlb	1	; () banked
  3618  0009BA  51AC               	movf	recv_msg@qptr& (0+255),w,b
  3619  0009BC  26E1               	addwf	fsr1l,f,c
  3620  0009BE  0101               	movlb	1	; () banked
  3621  0009C0  51AD               	movf	(recv_msg@qptr+1)& (0+255),w,b
  3622  0009C2  22E2               	addwfc	fsr1h,f,c
  3623  0009C4  50E7               	movf	indf1,w,c
  3624  0009C6  0101               	movlb	1	; () banked
  3625  0009C8  6FB3               	movwf	??_recv_msg& (0+255),b
  3626  0009CA  0101               	movlb	1	; () banked
  3627  0009CC  29B3               	incf	??_recv_msg& (0+255),w,b
  3628  0009CE  0B03               	andlw	3
  3629  0009D0  6EDF               	movwf	indf2,c
  3630                           
  3631                           ; BSR set to: 1
  3632                           ;messages.c: 89: (*msgtype) = qmsg->msgtype;
  3633  0009D2  0101               	movlb	1	; () banked
  3634  0009D4  EE20 F002          	lfsr	2,2
  3635  0009D8  0101               	movlb	1	; () banked
  3636  0009DA  51B8               	movf	recv_msg@qmsg& (0+255),w,b
  3637  0009DC  26D9               	addwf	fsr2l,f,c
  3638  0009DE  0101               	movlb	1	; () banked
  3639  0009E0  51B9               	movf	(recv_msg@qmsg+1)& (0+255),w,b
  3640  0009E2  22DA               	addwfc	fsr2h,f,c
  3641  0009E4  C1AF  FFE1         	movff	recv_msg@msgtype,fsr1l
  3642  0009E8  C1B0  FFE2         	movff	recv_msg@msgtype+1,fsr1h
  3643  0009EC  CFDF FFE7          	movff	indf2,indf1
  3644                           
  3645                           ; BSR set to: 1
  3646                           ;messages.c: 91: qmsg->full = 0;
  3647  0009F0  C1B8  FFD9         	movff	recv_msg@qmsg,fsr2l
  3648  0009F4  C1B9  FFDA         	movff	recv_msg@qmsg+1,fsr2h
  3649  0009F8  0E00               	movlw	0
  3650  0009FA  6EDF               	movwf	indf2,c
  3651                           
  3652                           ; BSR set to: 1
  3653                           ;messages.c: 92: return (tlength);
  3654  0009FC  0101               	movlb	1	; () banked
  3655  0009FE  51B6               	movf	recv_msg@tlength& (0+255),w,b
  3656  000A00  0012               	return	
  3657  000A02                     l2962:
  3658                           
  3659                           ; BSR set to: 1
  3660                           ;messages.c: 94: return (-4);
  3661  000A02  0EFC               	movlw	252
  3662  000A04  0012               	return	
  3663  000A06                     __end_of_recv_msg:
  3664                           	opt stack 0
  3665                           tblptru	equ	0xFF8
  3666                           prodh	equ	0xFF4
  3667                           prodl	equ	0xFF3
  3668                           intcon	equ	0xFF2
  3669                           postinc0	equ	0xFEE
  3670                           wreg	equ	0xFE8
  3671                           indf1	equ	0xFE7
  3672                           fsr1h	equ	0xFE2
  3673                           fsr1l	equ	0xFE1
  3674                           indf2	equ	0xFDF
  3675                           postinc2	equ	0xFDE
  3676                           postdec2	equ	0xFDD
  3677                           fsr2h	equ	0xFDA
  3678                           fsr2l	equ	0xFD9
  3679                           status	equ	0xFD8
  3680                           
  3681 ;; *************** function _memcpy *****************
  3682 ;; Defined at:
  3683 ;;		line 11 in file "C:\Program Files (x86)\Microchip\xc8\v1.32\sources\common\memcpy.c"
  3684 ;; Parameters:    Size  Location     Type
  3685 ;;  d1              2    0[BANK1 ] PTR void 
  3686 ;;		 -> FromMainLow_MQ.queue(52), FromMainHigh_MQ.queue(52), ToMainHigh_MQ.queue(52), ToMainLow_MQ.queue(52), 
  3687 ;;		 -> timer0_int_handler@val(2), FromMainHigh_MQ(54), FromMainLow_MQ(54), ToMainHigh_MQ(54), 
  3688 ;;		 -> ToMainLow_MQ(54), main@msgbuffer(11), 
  3689 ;;  s1              2    2[BANK1 ] PTR const void 
  3690 ;;		 -> ToMainLow_MQ.data(10), ToMainHigh_MQ.data(10), FromMainLow_MQ.data(10), FromMainHigh_MQ.data(10), 
  3691 ;;		 -> ToMainLow_MQ.queue.data(10), ToMainHigh_MQ.queue.data(10), FromMainHigh_MQ.queue.data(10), FromMainLow_MQ.queue.
      +data(10), 
  3692 ;;		 -> NULL(0), timer0_int_handler@val(2), i2c_int_handler@error_buf(3), FromMainHigh_MQ(54), 
  3693 ;;		 -> FromMainLow_MQ(54), ToMainHigh_MQ(54), ToMainLow_MQ(54), main@t1thread_data(2), 
  3694 ;;		 -> main@ic(28), 
  3695 ;;  n               2    4[BANK1 ] unsigned int 
  3696 ;; Auto vars:     Size  Location     Type
  3697 ;;  s               2    8[BANK1 ] PTR const unsigned char 
  3698 ;;		 -> ToMainLow_MQ.data(10), ToMainHigh_MQ.data(10), FromMainLow_MQ.data(10), FromMainHigh_MQ.data(10), 
  3699 ;;		 -> ToMainLow_MQ.queue.data(10), ToMainHigh_MQ.queue.data(10), FromMainHigh_MQ.queue.data(10), FromMainLow_MQ.queue.
      +data(10), 
  3700 ;;		 -> NULL(0), timer0_int_handler@val(2), i2c_int_handler@error_buf(3), FromMainHigh_MQ(54), 
  3701 ;;		 -> FromMainLow_MQ(54), ToMainHigh_MQ(54), ToMainLow_MQ(54), main@t1thread_data(2), 
  3702 ;;		 -> main@ic(28), 
  3703 ;;  d               2    6[BANK1 ] PTR unsigned char 
  3704 ;;		 -> FromMainLow_MQ.queue(52), FromMainHigh_MQ.queue(52), ToMainHigh_MQ.queue(52), ToMainLow_MQ.queue(52), 
  3705 ;;		 -> timer0_int_handler@val(2), FromMainHigh_MQ(54), FromMainLow_MQ(54), ToMainHigh_MQ(54), 
  3706 ;;		 -> ToMainLow_MQ(54), main@msgbuffer(11), 
  3707 ;; Return value:  Size  Location     Type
  3708 ;;                  2    0[BANK1 ] PTR void 
  3709 ;; Registers used:
  3710 ;;		wreg, fsr1l, fsr1h, fsr2l, fsr2h, status,2, status,0
  3711 ;; Tracked objects:
  3712 ;;		On entry : 0/0
  3713 ;;		On exit  : 0/0
  3714 ;;		Unchanged: 0/0
  3715 ;; Data sizes:     COMRAM   BANK0   BANK1   BANK2   BANK3   BANK4   BANK5   BANK6   BANK7   BANK8   BANK9  BANK10  BANK1
      +1  BANK12  BANK13  BANK14
  3716 ;;      Params:         0       0       6       0       0       0       0       0       0       0       0       0       
      +0       0       0       0
  3717 ;;      Locals:         0       0       4       0       0       0       0       0       0       0       0       0       
      +0       0       0       0
  3718 ;;      Temps:          0       0       0       0       0       0       0       0       0       0       0       0       
      +0       0       0       0
  3719 ;;      Totals:         0       0      10       0       0       0       0       0       0       0       0       0       
      +0       0       0       0
  3720 ;;Total ram usage:       10 bytes
  3721 ;; Hardware stack levels used:    1
  3722 ;; Hardware stack levels required when called:   10
  3723 ;; This function calls:
  3724 ;;		Nothing
  3725 ;; This function is called by:
  3726 ;;		_send_msg
  3727 ;;		_recv_msg
  3728 ;; This function uses a non-reentrant model
  3729 ;;
  3730                           
  3731                           	psect	text22
  3732  001314                     __ptext22:
  3733                           	opt stack 0
  3734  001314                     _memcpy:
  3735                           	opt stack 17
  3736                           
  3737                           ; BSR set to: 1
  3738                           ;incstack = 0
  3739  001314  0101               	movlb	1	; () banked
  3740  001316  C1A5  F1AB         	movff	memcpy@s1+1,memcpy@s+1
  3741  00131A  0101               	movlb	1	; () banked
  3742  00131C  C1A4  F1AA         	movff	memcpy@s1,memcpy@s
  3743  001320  0101               	movlb	1	; () banked
  3744  001322  C1A3  F1A9         	movff	memcpy@d1+1,memcpy@d+1
  3745  001326  0101               	movlb	1	; () banked
  3746  001328  C1A2  F1A8         	movff	memcpy@d1,memcpy@d
  3747  00132C  D010               	goto	l2804
  3748  00132E                     l2798:
  3749                           
  3750                           ; BSR set to: 1
  3751  00132E  C1AA  FFD9         	movff	memcpy@s,fsr2l
  3752  001332  C1AB  FFDA         	movff	memcpy@s+1,fsr2h
  3753  001336  C1A8  FFE1         	movff	memcpy@d,fsr1l
  3754  00133A  C1A9  FFE2         	movff	memcpy@d+1,fsr1h
  3755  00133E  CFDF FFE7          	movff	indf2,indf1
  3756                           
  3757                           ; BSR set to: 1
  3758  001342  0101               	movlb	1	; () banked
  3759  001344  4BAA               	infsnz	memcpy@s& (0+255),f,b
  3760  001346  2BAB               	incf	(memcpy@s+1)& (0+255),f,b
  3761                           
  3762                           ; BSR set to: 1
  3763  001348  0101               	movlb	1	; () banked
  3764  00134A  4BA8               	infsnz	memcpy@d& (0+255),f,b
  3765  00134C  2BA9               	incf	(memcpy@d+1)& (0+255),f,b
  3766  00134E                     l2804:
  3767                           
  3768                           ; BSR set to: 1
  3769  00134E  0101               	movlb	1	; () banked
  3770  001350  07A6               	decf	memcpy@n& (0+255),f,b
  3771  001352  A0D8               	btfss	status,0,c
  3772  001354  07A7               	decf	(memcpy@n+1)& (0+255),f,b
  3773  001356  0101               	movlb	1	; () banked
  3774  001358  29A6               	incf	memcpy@n& (0+255),w,b
  3775  00135A  B4D8               	btfsc	status,2,c
  3776  00135C  29A7               	incf	(memcpy@n+1)& (0+255),w,b
  3777  00135E  B4D8               	btfsc	status,2,c
  3778                           
  3779                           ; BSR set to: 1
  3780                           
  3781                           ; BSR set to: 1
  3782                           ;	Return value of _memcpy is never used
  3783  001360  0012               	return	
  3784  001362  D7E5               	goto	l2798
  3785  001364                     __end_of_memcpy:
  3786                           	opt stack 0
  3787                           tblptru	equ	0xFF8
  3788                           prodh	equ	0xFF4
  3789                           prodl	equ	0xFF3
  3790                           intcon	equ	0xFF2
  3791                           postinc0	equ	0xFEE
  3792                           wreg	equ	0xFE8
  3793                           indf1	equ	0xFE7
  3794                           fsr1h	equ	0xFE2
  3795                           fsr1l	equ	0xFE1
  3796                           indf2	equ	0xFDF
  3797                           postinc2	equ	0xFDE
  3798                           postdec2	equ	0xFDD
  3799                           fsr2h	equ	0xFDA
  3800                           fsr2l	equ	0xFD9
  3801                           status	equ	0xFD8
  3802                           
  3803 ;; *************** function _OpenTimer1 *****************
  3804 ;; Defined at:
  3805 ;;		line 43 in file "C:\Program Files (x86)\Microchip\xc8\v1.32\sources\pic18\plib\Timers\t1open.c"
  3806 ;; Parameters:    Size  Location     Type
  3807 ;;  config          1    wreg     unsigned char 
  3808 ;;  config1         1    0[BANK1 ] unsigned char 
  3809 ;; Auto vars:     Size  Location     Type
  3810 ;;  config          1    2[BANK1 ] unsigned char 
  3811 ;; Return value:  Size  Location     Type
  3812 ;;		None               void
  3813 ;; Registers used:
  3814 ;;		wreg, status,2, status,0
  3815 ;; Tracked objects:
  3816 ;;		On entry : 0/0
  3817 ;;		On exit  : 0/0
  3818 ;;		Unchanged: 0/0
  3819 ;; Data sizes:     COMRAM   BANK0   BANK1   BANK2   BANK3   BANK4   BANK5   BANK6   BANK7   BANK8   BANK9  BANK10  BANK1
      +1  BANK12  BANK13  BANK14
  3820 ;;      Params:         0       0       1       0       0       0       0       0       0       0       0       0       
      +0       0       0       0
  3821 ;;      Locals:         0       0       1       0       0       0       0       0       0       0       0       0       
      +0       0       0       0
  3822 ;;      Temps:          0       0       1       0       0       0       0       0       0       0       0       0       
      +0       0       0       0
  3823 ;;      Totals:         0       0       3       0       0       0       0       0       0       0       0       0       
      +0       0       0       0
  3824 ;;Total ram usage:        3 bytes
  3825 ;; Hardware stack levels used:    1
  3826 ;; Hardware stack levels required when called:   10
  3827 ;; This function calls:
  3828 ;;		Nothing
  3829 ;; This function is called by:
  3830 ;;		_main
  3831 ;; This function uses a non-reentrant model
  3832 ;;
  3833                           
  3834                           	psect	text23
  3835  001472                     __ptext23:
  3836                           	opt stack 0
  3837  001472                     _OpenTimer1:
  3838                           	opt stack 20
  3839                           
  3840                           ; BSR set to: 1
  3841                           ;incstack = 0
  3842                           ;OpenTimer1@config stored from wreg
  3843  001472  0101               	movlb	1	; () banked
  3844  001474  6FA4               	movwf	OpenTimer1@config& (0+255),b
  3845                           
  3846                           ; BSR set to: 1
  3847  001476  0101               	movlb	1	; () banked
  3848  001478  51A2               	movf	OpenTimer1@config1& (0+255),w,b
  3849  00147A  0BF3               	andlw	243
  3850  00147C  6E9A               	movwf	3994,c	;volatile
  3851  00147E  C1A4  F1A3         	movff	OpenTimer1@config,??_OpenTimer1
  3852  001482  0E7F               	movlw	127
  3853  001484  0101               	movlb	1	; () banked
  3854  001486  17A3               	andwf	??_OpenTimer1& (0+255),f,b
  3855  001488  0101               	movlb	1	; () banked
  3856  00148A  90D8               	bcf	status,0,c
  3857  00148C  35A3               	rlcf	??_OpenTimer1& (0+255),w,b
  3858  00148E  6ECD               	movwf	4045,c	;volatile
  3859                           
  3860                           ; BSR set to: 1
  3861  001490  0E00               	movlw	0
  3862  001492  6ECF               	movwf	4047,c	;volatile
  3863                           
  3864                           ; BSR set to: 1
  3865  001494  0E00               	movlw	0
  3866  001496  6ECE               	movwf	4046,c	;volatile
  3867                           
  3868                           ; BSR set to: 1
  3869  001498  909E               	bcf	3998,0,c	;volatile
  3870                           
  3871                           ; BSR set to: 1
  3872  00149A  0101               	movlb	1	; () banked
  3873  00149C  AFA4               	btfss	OpenTimer1@config& (0+255),7,b
  3874  00149E  D002               	goto	l492
  3875                           
  3876                           ; BSR set to: 1
  3877  0014A0  809D               	bsf	3997,0,c	;volatile
  3878  0014A2  D001               	goto	l493
  3879  0014A4                     l492:
  3880                           
  3881                           ; BSR set to: 1
  3882  0014A4  909D               	bcf	3997,0,c	;volatile
  3883  0014A6                     l493:
  3884                           
  3885                           ; BSR set to: 1
  3886  0014A6  BE9A               	btfsc	3994,7,c	;volatile
  3887                           
  3888                           ; BSR set to: 1
  3889  0014A8  869A               	bsf	3994,3,c	;volatile
  3890                           
  3891                           ; BSR set to: 1
  3892  0014AA  80CD               	bsf	4045,0,c	;volatile
  3893                           
  3894                           ; BSR set to: 1
  3895  0014AC  0012               	return	
  3896  0014AE                     __end_of_OpenTimer1:
  3897                           	opt stack 0
  3898                           tblptru	equ	0xFF8
  3899                           prodh	equ	0xFF4
  3900                           prodl	equ	0xFF3
  3901                           intcon	equ	0xFF2
  3902                           postinc0	equ	0xFEE
  3903                           wreg	equ	0xFE8
  3904                           indf1	equ	0xFE7
  3905                           fsr1h	equ	0xFE2
  3906                           fsr1l	equ	0xFE1
  3907                           indf2	equ	0xFDF
  3908                           postinc2	equ	0xFDE
  3909                           postdec2	equ	0xFDD
  3910                           fsr2h	equ	0xFDA
  3911                           fsr2l	equ	0xFD9
  3912                           status	equ	0xFD8
  3913                           
  3914 ;; *************** function _OpenTimer0 *****************
  3915 ;; Defined at:
  3916 ;;		line 18 in file "C:\Program Files (x86)\Microchip\xc8\v1.32\sources\pic18\plib\Timers\t0open.c"
  3917 ;; Parameters:    Size  Location     Type
  3918 ;;  config          1    wreg     unsigned char 
  3919 ;; Auto vars:     Size  Location     Type
  3920 ;;  config          1    0[BANK1 ] unsigned char 
  3921 ;; Return value:  Size  Location     Type
  3922 ;;		None               void
  3923 ;; Registers used:
  3924 ;;		wreg, status,2, status,0
  3925 ;; Tracked objects:
  3926 ;;		On entry : 0/0
  3927 ;;		On exit  : 0/0
  3928 ;;		Unchanged: 0/0
  3929 ;; Data sizes:     COMRAM   BANK0   BANK1   BANK2   BANK3   BANK4   BANK5   BANK6   BANK7   BANK8   BANK9  BANK10  BANK1
      +1  BANK12  BANK13  BANK14
  3930 ;;      Params:         0       0       0       0       0       0       0       0       0       0       0       0       
      +0       0       0       0
  3931 ;;      Locals:         0       0       1       0       0       0       0       0       0       0       0       0       
      +0       0       0       0
  3932 ;;      Temps:          0       0       0       0       0       0       0       0       0       0       0       0       
      +0       0       0       0
  3933 ;;      Totals:         0       0       1       0       0       0       0       0       0       0       0       0       
      +0       0       0       0
  3934 ;;Total ram usage:        1 bytes
  3935 ;; Hardware stack levels used:    1
  3936 ;; Hardware stack levels required when called:   10
  3937 ;; This function calls:
  3938 ;;		Nothing
  3939 ;; This function is called by:
  3940 ;;		_main
  3941 ;; This function uses a non-reentrant model
  3942 ;;
  3943                           
  3944                           	psect	text24
  3945  001730                     __ptext24:
  3946                           	opt stack 0
  3947  001730                     _OpenTimer0:
  3948                           	opt stack 20
  3949                           
  3950                           ; BSR set to: 1
  3951                           ;incstack = 0
  3952                           ;OpenTimer0@config stored from wreg
  3953  001730  0101               	movlb	1	; () banked
  3954  001732  6FA2               	movwf	OpenTimer0@config& (0+255),b
  3955                           
  3956                           ; BSR set to: 1
  3957  001734  0101               	movlb	1	; () banked
  3958  001736  51A2               	movf	OpenTimer0@config& (0+255),w,b
  3959  001738  0B7F               	andlw	127
  3960  00173A  6ED5               	movwf	4053,c	;volatile
  3961                           
  3962                           ; BSR set to: 1
  3963  00173C  0E00               	movlw	0
  3964  00173E  6ED7               	movwf	4055,c	;volatile
  3965                           
  3966                           ; BSR set to: 1
  3967  001740  0E00               	movlw	0
  3968  001742  6ED6               	movwf	4054,c	;volatile
  3969                           
  3970                           ; BSR set to: 1
  3971  001744  94F2               	bcf	intcon,2,c	;volatile
  3972                           
  3973                           ; BSR set to: 1
  3974  001746  0101               	movlb	1	; () banked
  3975  001748  AFA2               	btfss	OpenTimer0@config& (0+255),7,b
  3976  00174A  D002               	goto	l464
  3977                           
  3978                           ; BSR set to: 1
  3979  00174C  8AF2               	bsf	intcon,5,c	;volatile
  3980  00174E  D001               	goto	l465
  3981  001750                     l464:
  3982                           
  3983                           ; BSR set to: 1
  3984  001750  9AF2               	bcf	intcon,5,c	;volatile
  3985  001752                     l465:
  3986                           
  3987                           ; BSR set to: 1
  3988  001752  8ED5               	bsf	4053,7,c	;volatile
  3989                           
  3990                           ; BSR set to: 1
  3991  001754  0012               	return	
  3992  001756                     __end_of_OpenTimer0:
  3993                           	opt stack 0
  3994                           tblptru	equ	0xFF8
  3995                           prodh	equ	0xFF4
  3996                           prodl	equ	0xFF3
  3997                           intcon	equ	0xFF2
  3998                           postinc0	equ	0xFEE
  3999                           wreg	equ	0xFE8
  4000                           indf1	equ	0xFE7
  4001                           fsr1h	equ	0xFE2
  4002                           fsr1l	equ	0xFE1
  4003                           indf2	equ	0xFDF
  4004                           postinc2	equ	0xFDE
  4005                           postdec2	equ	0xFDD
  4006                           fsr2h	equ	0xFDA
  4007                           fsr2l	equ	0xFD9
  4008                           status	equ	0xFD8
  4009                           
  4010 ;; *************** function _InterruptHandlerLow *****************
  4011 ;; Defined at:
  4012 ;;		line 125 in file "../src/interrupts.c"
  4013 ;; Parameters:    Size  Location     Type
  4014 ;;		None
  4015 ;; Auto vars:     Size  Location     Type
  4016 ;;		None
  4017 ;; Return value:  Size  Location     Type
  4018 ;;		None               void
  4019 ;; Registers used:
  4020 ;;		wreg, fsr1l, fsr1h, fsr2l, fsr2h, status,2, status,0, prodl, prodh, cstack
  4021 ;; Tracked objects:
  4022 ;;		On entry : 0/0
  4023 ;;		On exit  : 0/0
  4024 ;;		Unchanged: 0/0
  4025 ;; Data sizes:     COMRAM   BANK0   BANK1   BANK2   BANK3   BANK4   BANK5   BANK6   BANK7   BANK8   BANK9  BANK10  BANK1
      +1  BANK12  BANK13  BANK14
  4026 ;;      Params:         0       0       0       0       0       0       0       0       0       0       0       0       
      +0       0       0       0
  4027 ;;      Locals:         0       0       0       0       0       0       0       0       0       0       0       0       
      +0       0       0       0
  4028 ;;      Temps:         17       0       0       0       0       0       0       0       0       0       0       0       
      +0       0       0       0
  4029 ;;      Totals:        17       0       0       0       0       0       0       0       0       0       0       0       
      +0       0       0       0
  4030 ;;Total ram usage:       17 bytes
  4031 ;; Hardware stack levels used:    1
  4032 ;; Hardware stack levels required when called:    9
  4033 ;; This function calls:
  4034 ;;		_timer1_int_handler
  4035 ;;		_uart_receive_byte
  4036 ;;		_uart_send_buffer_empty
  4037 ;;		_uart_transmit_byte
  4038 ;; This function is called by:
  4039 ;;		Interrupt level 1
  4040 ;; This function uses a non-reentrant model
  4041 ;;
  4042                           
  4043                           	psect	intcodelo
  4044  000018                     __pintcodelo:
  4045                           	opt stack 0
  4046  000018                     _InterruptHandlerLow:
  4047                           	opt stack 17
  4048                           
  4049                           ; BSR set to: 1
  4050                           ;incstack = 0
  4051  000018  CFD8 F01D          	movff	status,??_InterruptHandlerLow
  4052  00001C  CFE8 F01E          	movff	wreg,??_InterruptHandlerLow+1
  4053  000020  CFE0 F01F          	movff	bsr,??_InterruptHandlerLow+2
  4054  000024  CFFA F020          	movff	pclath,??_InterruptHandlerLow+3
  4055  000028  CFFB F021          	movff	pclatu,??_InterruptHandlerLow+4
  4056  00002C  CFE9 F022          	movff	fsr0l,??_InterruptHandlerLow+5
  4057  000030  CFEA F023          	movff	fsr0h,??_InterruptHandlerLow+6
  4058  000034  CFE1 F024          	movff	fsr1l,??_InterruptHandlerLow+7
  4059  000038  CFE2 F025          	movff	fsr1h,??_InterruptHandlerLow+8
  4060  00003C  CFD9 F026          	movff	fsr2l,??_InterruptHandlerLow+9
  4061  000040  CFDA F027          	movff	fsr2h,??_InterruptHandlerLow+10
  4062  000044  CFF3 F028          	movff	prodl,??_InterruptHandlerLow+11
  4063  000048  CFF4 F029          	movff	prodh,??_InterruptHandlerLow+12
  4064  00004C  CFF6 F02A          	movff	tblptrl,??_InterruptHandlerLow+13
  4065  000050  CFF7 F02B          	movff	tblptrh,??_InterruptHandlerLow+14
  4066  000054  CFF8 F02C          	movff	tblptru,??_InterruptHandlerLow+15
  4067  000058  CFF5 F02D          	movff	tablat,??_InterruptHandlerLow+16
  4068                           
  4069                           ;interrupts.c: 128: if (PIR1bits.TMR1IF) {
  4070  00005C  A09E               	btfss	3998,0,c	;volatile
  4071  00005E  D003               	goto	i1l2644
  4072                           
  4073                           ;interrupts.c: 129: PIR1bits.TMR1IF = 0;
  4074  000060  909E               	bcf	3998,0,c	;volatile
  4075                           
  4076                           ;interrupts.c: 130: timer1_int_handler();
  4077  000062  ECC5  F00A         	call	_timer1_int_handler	;wreg free
  4078  000066                     i1l2644:
  4079                           
  4080                           ;interrupts.c: 131: }
  4081                           ;interrupts.c: 134: if (PIR1bits.RCIF) {
  4082  000066  AA9E               	btfss	3998,5,c	;volatile
  4083  000068  D003               	goto	i1l2650
  4084                           
  4085                           ;interrupts.c: 135: PIR1bits.RCIF = 0;
  4086  00006A  9A9E               	bcf	3998,5,c	;volatile
  4087                           
  4088                           ;interrupts.c: 136: uart_receive_byte();
  4089  00006C  EC57  F00A         	call	_uart_receive_byte	;wreg free
  4090  000070                     i1l2650:
  4091                           
  4092                           ;interrupts.c: 137: }
  4093                           ;interrupts.c: 141: if (PIR1bits.TX1IF && PIE1bits.TX1IE)
  4094  000070  B89E               	btfsc	3998,4,c	;volatile
  4095  000072  A89D               	btfss	3997,4,c	;volatile
  4096  000074  D009               	goto	i1l61
  4097                           
  4098                           ;interrupts.c: 142: {
  4099                           ;interrupts.c: 145: LATDbits.LATD3 = 1;
  4100  000076  868C               	bsf	3980,3,c	;volatile
  4101                           
  4102                           ;interrupts.c: 146: LATDbits.LATD3 = 0;
  4103  000078  968C               	bcf	3980,3,c	;volatile
  4104                           
  4105                           ;interrupts.c: 149: if( !uart_send_buffer_empty() )
  4106  00007A  ECCD  F00B         	call	_uart_send_buffer_empty	;wreg free
  4107  00007E  5002               	movf	?_uart_send_buffer_empty+1,w,c
  4108  000080  1001               	iorwf	?_uart_send_buffer_empty,w,c
  4109  000082  B4D8               	btfsc	status,2,c
  4110                           
  4111                           ;interrupts.c: 150: {
  4112                           ;interrupts.c: 151: uart_transmit_byte();
  4113  000084  EC6F  F00B         	call	_uart_transmit_byte	;wreg free
  4114  000088                     i1l61:
  4115  000088  C02D  FFF5         	movff	??_InterruptHandlerLow+16,tablat
  4116  00008C  C02C  FFF8         	movff	??_InterruptHandlerLow+15,tblptru
  4117  000090  C02B  FFF7         	movff	??_InterruptHandlerLow+14,tblptrh
  4118  000094  C02A  FFF6         	movff	??_InterruptHandlerLow+13,tblptrl
  4119  000098  C029  FFF4         	movff	??_InterruptHandlerLow+12,prodh
  4120  00009C  C028  FFF3         	movff	??_InterruptHandlerLow+11,prodl
  4121  0000A0  C027  FFDA         	movff	??_InterruptHandlerLow+10,fsr2h
  4122  0000A4  C026  FFD9         	movff	??_InterruptHandlerLow+9,fsr2l
  4123  0000A8  C025  FFE2         	movff	??_InterruptHandlerLow+8,fsr1h
  4124  0000AC  C024  FFE1         	movff	??_InterruptHandlerLow+7,fsr1l
  4125  0000B0  C023  FFEA         	movff	??_InterruptHandlerLow+6,fsr0h
  4126  0000B4  C022  FFE9         	movff	??_InterruptHandlerLow+5,fsr0l
  4127  0000B8  C021  FFFB         	movff	??_InterruptHandlerLow+4,pclatu
  4128  0000BC  C020  FFFA         	movff	??_InterruptHandlerLow+3,pclath
  4129  0000C0  C01F  FFE0         	movff	??_InterruptHandlerLow+2,bsr
  4130  0000C4  C01E  FFE8         	movff	??_InterruptHandlerLow+1,wreg
  4131  0000C8  C01D  FFD8         	movff	??_InterruptHandlerLow,status
  4132  0000CC  0010               	retfie	
  4133  0000CE                     __end_of_InterruptHandlerLow:
  4134                           	opt stack 0
  4135                           pclatu	equ	0xFFB
  4136                           pclath	equ	0xFFA
  4137                           tblptru	equ	0xFF8
  4138                           tblptrh	equ	0xFF7
  4139                           tblptrl	equ	0xFF6
  4140                           tablat	equ	0xFF5
  4141                           prodh	equ	0xFF4
  4142                           prodl	equ	0xFF3
  4143                           intcon	equ	0xFF2
  4144                           postinc0	equ	0xFEE
  4145                           fsr0h	equ	0xFEA
  4146                           fsr0l	equ	0xFE9
  4147                           wreg	equ	0xFE8
  4148                           indf1	equ	0xFE7
  4149                           fsr1h	equ	0xFE2
  4150                           fsr1l	equ	0xFE1
  4151                           bsr	equ	0xFE0
  4152                           indf2	equ	0xFDF
  4153                           postinc2	equ	0xFDE
  4154                           postdec2	equ	0xFDD
  4155                           fsr2h	equ	0xFDA
  4156                           fsr2l	equ	0xFD9
  4157                           status	equ	0xFD8
  4158                           
  4159 ;; *************** function _uart_transmit_byte *****************
  4160 ;; Defined at:
  4161 ;;		line 72 in file "../src/my_uart.c"
  4162 ;; Parameters:    Size  Location     Type
  4163 ;;		None
  4164 ;; Auto vars:     Size  Location     Type
  4165 ;;		None
  4166 ;; Return value:  Size  Location     Type
  4167 ;;		None               void
  4168 ;; Registers used:
  4169 ;;		wreg, fsr2l, fsr2h, status,2, status,0, prodl, prodh
  4170 ;; Tracked objects:
  4171 ;;		On entry : 0/0
  4172 ;;		On exit  : 0/0
  4173 ;;		Unchanged: 0/0
  4174 ;; Data sizes:     COMRAM   BANK0   BANK1   BANK2   BANK3   BANK4   BANK5   BANK6   BANK7   BANK8   BANK9  BANK10  BANK1
      +1  BANK12  BANK13  BANK14
  4175 ;;      Params:         0       0       0       0       0       0       0       0       0       0       0       0       
      +0       0       0       0
  4176 ;;      Locals:         0       0       0       0       0       0       0       0       0       0       0       0       
      +0       0       0       0
  4177 ;;      Temps:          0       0       0       0       0       0       0       0       0       0       0       0       
      +0       0       0       0
  4178 ;;      Totals:         0       0       0       0       0       0       0       0       0       0       0       0       
      +0       0       0       0
  4179 ;;Total ram usage:        0 bytes
  4180 ;; Hardware stack levels used:    1
  4181 ;; Hardware stack levels required when called:    5
  4182 ;; This function calls:
  4183 ;;		Nothing
  4184 ;; This function is called by:
  4185 ;;		_InterruptHandlerLow
  4186 ;; This function uses a non-reentrant model
  4187 ;;
  4188                           
  4189                           	psect	text26
  4190  0016DE                     __ptext26:
  4191                           	opt stack 0
  4192  0016DE                     _uart_transmit_byte:
  4193                           	opt stack 20
  4194                           
  4195                           ;my_uart.c: 74: if( uart_send_buffer.size <= 0 )
  4196                           
  4197                           ;incstack = 0
  4198  0016DE  6635               	tstfsz	_uart_send_buffer+6,c
  4199  0016E0  D001               	goto	i1l1598
  4200  0016E2  0012               	return	
  4201  0016E4                     i1l1598:
  4202                           
  4203                           ;my_uart.c: 77: }
  4204                           ;my_uart.c: 78: TXREG1 = uart_send_buffer.buffer[uart_send_buffer.current_item];
  4205  0016E4  5033               	movf	_uart_send_buffer+4,w,c
  4206  0016E6  0D01               	mullw	1
  4207  0016E8  0E2F               	movlw	low _uart_send_buffer
  4208  0016EA  24F3               	addwf	prodl,w,c
  4209  0016EC  6ED9               	movwf	fsr2l,c
  4210  0016EE  0E00               	movlw	high _uart_send_buffer
  4211  0016F0  20F4               	addwfc	prodh,w,c
  4212  0016F2  6EDA               	movwf	fsr2h,c
  4213  0016F4  50DF               	movf	indf2,w,c
  4214  0016F6  6EAE               	movwf	4014,c	;volatile
  4215                           
  4216                           ;my_uart.c: 79: uart_send_buffer.current_item = (uart_send_buffer.current_item + 1) % 4;
  4217  0016F8  2833               	incf	_uart_send_buffer+4,w,c
  4218  0016FA  0B03               	andlw	3
  4219  0016FC  6E33               	movwf	_uart_send_buffer+4,c
  4220                           
  4221                           ;my_uart.c: 80: uart_send_buffer.size -= 1;
  4222  0016FE  0635               	decf	_uart_send_buffer+6,f,c
  4223                           
  4224                           ;my_uart.c: 82: if( uart_send_buffer.size <= 0 )
  4225  001700  6635               	tstfsz	_uart_send_buffer+6,c
  4226  001702  0012               	return	
  4227                           
  4228                           ;my_uart.c: 83: {
  4229                           ;my_uart.c: 84: PIE1bits.TX1IE = 0;
  4230  001704  989D               	bcf	3997,4,c	;volatile
  4231  001706  0012               	return	
  4232  001708                     __end_of_uart_transmit_byte:
  4233                           	opt stack 0
  4234                           pclatu	equ	0xFFB
  4235                           pclath	equ	0xFFA
  4236                           tblptru	equ	0xFF8
  4237                           tblptrh	equ	0xFF7
  4238                           tblptrl	equ	0xFF6
  4239                           tablat	equ	0xFF5
  4240                           prodh	equ	0xFF4
  4241                           prodl	equ	0xFF3
  4242                           intcon	equ	0xFF2
  4243                           postinc0	equ	0xFEE
  4244                           fsr0h	equ	0xFEA
  4245                           fsr0l	equ	0xFE9
  4246                           wreg	equ	0xFE8
  4247                           indf1	equ	0xFE7
  4248                           fsr1h	equ	0xFE2
  4249                           fsr1l	equ	0xFE1
  4250                           bsr	equ	0xFE0
  4251                           indf2	equ	0xFDF
  4252                           postinc2	equ	0xFDE
  4253                           postdec2	equ	0xFDD
  4254                           fsr2h	equ	0xFDA
  4255                           fsr2l	equ	0xFD9
  4256                           status	equ	0xFD8
  4257                           
  4258 ;; *************** function _uart_send_buffer_empty *****************
  4259 ;; Defined at:
  4260 ;;		line 90 in file "../src/my_uart.c"
  4261 ;; Parameters:    Size  Location     Type
  4262 ;;		None
  4263 ;; Auto vars:     Size  Location     Type
  4264 ;;		None
  4265 ;; Return value:  Size  Location     Type
  4266 ;;                  2    0[COMRAM] int 
  4267 ;; Registers used:
  4268 ;;		wreg, status,2
  4269 ;; Tracked objects:
  4270 ;;		On entry : 0/0
  4271 ;;		On exit  : 0/0
  4272 ;;		Unchanged: 0/0
  4273 ;; Data sizes:     COMRAM   BANK0   BANK1   BANK2   BANK3   BANK4   BANK5   BANK6   BANK7   BANK8   BANK9  BANK10  BANK1
      +1  BANK12  BANK13  BANK14
  4274 ;;      Params:         2       0       0       0       0       0       0       0       0       0       0       0       
      +0       0       0       0
  4275 ;;      Locals:         0       0       0       0       0       0       0       0       0       0       0       0       
      +0       0       0       0
  4276 ;;      Temps:          0       0       0       0       0       0       0       0       0       0       0       0       
      +0       0       0       0
  4277 ;;      Totals:         2       0       0       0       0       0       0       0       0       0       0       0       
      +0       0       0       0
  4278 ;;Total ram usage:        2 bytes
  4279 ;; Hardware stack levels used:    1
  4280 ;; Hardware stack levels required when called:    5
  4281 ;; This function calls:
  4282 ;;		Nothing
  4283 ;; This function is called by:
  4284 ;;		_InterruptHandlerLow
  4285 ;; This function uses a non-reentrant model
  4286 ;;
  4287                           
  4288                           	psect	text27
  4289  00179A                     __ptext27:
  4290                           	opt stack 0
  4291  00179A                     _uart_send_buffer_empty:
  4292                           	opt stack 20
  4293                           
  4294                           ;my_uart.c: 92: if( uart_send_buffer.size <= 0 )
  4295                           
  4296                           ;incstack = 0
  4297  00179A  6635               	tstfsz	_uart_send_buffer+6,c
  4298  00179C  D007               	goto	i1l1590
  4299                           
  4300                           ;my_uart.c: 93: {
  4301                           ;my_uart.c: 94: uart_send_buffer.size = 0;
  4302  00179E  0E00               	movlw	0
  4303  0017A0  6E35               	movwf	_uart_send_buffer+6,c
  4304                           
  4305                           ;my_uart.c: 95: return 1;
  4306  0017A2  0E00               	movlw	0
  4307  0017A4  6E02               	movwf	?_uart_send_buffer_empty+1,c
  4308  0017A6  0E01               	movlw	1
  4309  0017A8  6E01               	movwf	?_uart_send_buffer_empty,c
  4310  0017AA  0012               	return	
  4311  0017AC                     i1l1590:
  4312                           
  4313                           ;my_uart.c: 97: else
  4314                           ;my_uart.c: 98: {
  4315                           ;my_uart.c: 99: return 0;
  4316  0017AC  0E00               	movlw	0
  4317  0017AE  6E02               	movwf	?_uart_send_buffer_empty+1,c
  4318  0017B0  0E00               	movlw	0
  4319  0017B2  6E01               	movwf	?_uart_send_buffer_empty,c
  4320  0017B4  0012               	return	
  4321  0017B6                     __end_of_uart_send_buffer_empty:
  4322                           	opt stack 0
  4323                           pclatu	equ	0xFFB
  4324                           pclath	equ	0xFFA
  4325                           tblptru	equ	0xFF8
  4326                           tblptrh	equ	0xFF7
  4327                           tblptrl	equ	0xFF6
  4328                           tablat	equ	0xFF5
  4329                           prodh	equ	0xFF4
  4330                           prodl	equ	0xFF3
  4331                           intcon	equ	0xFF2
  4332                           postinc0	equ	0xFEE
  4333                           fsr0h	equ	0xFEA
  4334                           fsr0l	equ	0xFE9
  4335                           wreg	equ	0xFE8
  4336                           indf1	equ	0xFE7
  4337                           fsr1h	equ	0xFE2
  4338                           fsr1l	equ	0xFE1
  4339                           bsr	equ	0xFE0
  4340                           indf2	equ	0xFDF
  4341                           postinc2	equ	0xFDE
  4342                           postdec2	equ	0xFDD
  4343                           fsr2h	equ	0xFDA
  4344                           fsr2l	equ	0xFD9
  4345                           status	equ	0xFD8
  4346                           
  4347 ;; *************** function _uart_receive_byte *****************
  4348 ;; Defined at:
  4349 ;;		line 126 in file "../src/my_uart.c"
  4350 ;; Parameters:    Size  Location     Type
  4351 ;;		None
  4352 ;; Auto vars:     Size  Location     Type
  4353 ;;		None
  4354 ;; Return value:  Size  Location     Type
  4355 ;;		None               void
  4356 ;; Registers used:
  4357 ;;		wreg, fsr2l, fsr2h, status,2, status,0, prodl, prodh
  4358 ;; Tracked objects:
  4359 ;;		On entry : 0/0
  4360 ;;		On exit  : 0/0
  4361 ;;		Unchanged: 0/0
  4362 ;; Data sizes:     COMRAM   BANK0   BANK1   BANK2   BANK3   BANK4   BANK5   BANK6   BANK7   BANK8   BANK9  BANK10  BANK1
      +1  BANK12  BANK13  BANK14
  4363 ;;      Params:         0       0       0       0       0       0       0       0       0       0       0       0       
      +0       0       0       0
  4364 ;;      Locals:         0       0       0       0       0       0       0       0       0       0       0       0       
      +0       0       0       0
  4365 ;;      Temps:          0       0       0       0       0       0       0       0       0       0       0       0       
      +0       0       0       0
  4366 ;;      Totals:         0       0       0       0       0       0       0       0       0       0       0       0       
      +0       0       0       0
  4367 ;;Total ram usage:        0 bytes
  4368 ;; Hardware stack levels used:    1
  4369 ;; Hardware stack levels required when called:    5
  4370 ;; This function calls:
  4371 ;;		Nothing
  4372 ;; This function is called by:
  4373 ;;		_InterruptHandlerLow
  4374 ;; This function uses a non-reentrant model
  4375 ;;
  4376                           
  4377                           	psect	text28
  4378  0014AE                     __ptext28:
  4379                           	opt stack 0
  4380  0014AE                     _uart_receive_byte:
  4381                           	opt stack 20
  4382                           
  4383                           ;my_uart.c: 128: if( uart_receive_buffer.size >= 4 )
  4384                           
  4385                           ;incstack = 0
  4386  0014AE  0100               	movlb	0	; () banked
  4387  0014B0  EE20  F09C         	lfsr	2,_uart_receive_buffer+6
  4388  0014B4  0E03               	movlw	3
  4389  0014B6  64DF               	cpfsgt	indf2,c
  4390  0014B8  D002               	goto	i1l2434
  4391                           
  4392                           ; BSR set to: 0
  4393                           ;my_uart.c: 129: {
  4394                           ;my_uart.c: 130: PIE1bits.RC1IE = 0;
  4395  0014BA  9A9D               	bcf	3997,5,c	;volatile
  4396                           
  4397                           ;my_uart.c: 131: return;
  4398  0014BC  0012               	return	
  4399  0014BE                     i1l2434:
  4400                           
  4401                           ; BSR set to: 0
  4402                           ;my_uart.c: 132: }
  4403                           ;my_uart.c: 133: uart_receive_buffer.buffer[uart_receive_buffer.last_item] = RCREG1;
  4404  0014BE  0100               	movlb	0	; () banked
  4405  0014C0  519B               	movf	(_uart_receive_buffer+5)& (0+255),w,b
  4406  0014C2  0D01               	mullw	1
  4407  0014C4  0100               	movlb	0	; () banked
  4408  0014C6  0E96               	movlw	low _uart_receive_buffer
  4409  0014C8  24F3               	addwf	prodl,w,c
  4410  0014CA  6ED9               	movwf	fsr2l,c
  4411  0014CC  0100               	movlb	0	; () banked
  4412  0014CE  0E00               	movlw	high _uart_receive_buffer
  4413  0014D0  20F4               	addwfc	prodh,w,c
  4414  0014D2  6EDA               	movwf	fsr2h,c
  4415  0014D4  CFAF FFDF          	movff	4015,indf2	;volatile
  4416                           
  4417                           ; BSR set to: 0
  4418                           ;my_uart.c: 134: uart_receive_buffer.last_item = (uart_receive_buffer.last_item + 1) % 4
      +                          ;
  4419  0014D8  0100               	movlb	0	; () banked
  4420  0014DA  299B               	incf	(_uart_receive_buffer+5)& (0+255),w,b
  4421  0014DC  0B03               	andlw	3
  4422  0014DE  0100               	movlb	0	; () banked
  4423  0014E0  6F9B               	movwf	(_uart_receive_buffer+5)& (0+255),b
  4424                           
  4425                           ; BSR set to: 0
  4426                           ;my_uart.c: 135: uart_receive_buffer.size += 1;
  4427  0014E2  0100               	movlb	0	; () banked
  4428  0014E4  2B9C               	incf	(_uart_receive_buffer+6)& (0+255),f,b
  4429                           
  4430                           ; BSR set to: 0
  4431  0014E6  0012               	return	
  4432  0014E8                     __end_of_uart_receive_byte:
  4433                           	opt stack 0
  4434                           pclatu	equ	0xFFB
  4435                           pclath	equ	0xFFA
  4436                           tblptru	equ	0xFF8
  4437                           tblptrh	equ	0xFF7
  4438                           tblptrl	equ	0xFF6
  4439                           tablat	equ	0xFF5
  4440                           prodh	equ	0xFF4
  4441                           prodl	equ	0xFF3
  4442                           intcon	equ	0xFF2
  4443                           postinc0	equ	0xFEE
  4444                           fsr0h	equ	0xFEA
  4445                           fsr0l	equ	0xFE9
  4446                           wreg	equ	0xFE8
  4447                           indf1	equ	0xFE7
  4448                           fsr1h	equ	0xFE2
  4449                           fsr1l	equ	0xFE1
  4450                           bsr	equ	0xFE0
  4451                           indf2	equ	0xFDF
  4452                           postinc2	equ	0xFDE
  4453                           postdec2	equ	0xFDD
  4454                           fsr2h	equ	0xFDA
  4455                           fsr2l	equ	0xFD9
  4456                           status	equ	0xFD8
  4457                           
  4458 ;; *************** function _timer1_int_handler *****************
  4459 ;; Defined at:
  4460 ;;		line 49 in file "../src/user_interrupts.c"
  4461 ;; Parameters:    Size  Location     Type
  4462 ;;		None
  4463 ;; Auto vars:     Size  Location     Type
  4464 ;;  result          2   26[COMRAM] unsigned int 
  4465 ;; Return value:  Size  Location     Type
  4466 ;;		None               void
  4467 ;; Registers used:
  4468 ;;		wreg, fsr1l, fsr1h, fsr2l, fsr2h, status,2, status,0, prodl, prodh, cstack
  4469 ;; Tracked objects:
  4470 ;;		On entry : 0/0
  4471 ;;		On exit  : 0/0
  4472 ;;		Unchanged: 0/0
  4473 ;; Data sizes:     COMRAM   BANK0   BANK1   BANK2   BANK3   BANK4   BANK5   BANK6   BANK7   BANK8   BANK9  BANK10  BANK1
      +1  BANK12  BANK13  BANK14
  4474 ;;      Params:         0       0       0       0       0       0       0       0       0       0       0       0       
      +0       0       0       0
  4475 ;;      Locals:         2       0       0       0       0       0       0       0       0       0       0       0       
      +0       0       0       0
  4476 ;;      Temps:          0       0       0       0       0       0       0       0       0       0       0       0       
      +0       0       0       0
  4477 ;;      Totals:         2       0       0       0       0       0       0       0       0       0       0       0       
      +0       0       0       0
  4478 ;;Total ram usage:        2 bytes
  4479 ;; Hardware stack levels used:    1
  4480 ;; Hardware stack levels required when called:    8
  4481 ;; This function calls:
  4482 ;;		_ReadTimer1
  4483 ;;		_ToMainLow_sendmsg
  4484 ;;		_WriteTimer1
  4485 ;; This function is called by:
  4486 ;;		_InterruptHandlerLow
  4487 ;; This function uses a non-reentrant model
  4488 ;;
  4489                           
  4490                           	psect	text29
  4491  00158A                     __ptext29:
  4492                           	opt stack 0
  4493  00158A                     _timer1_int_handler:
  4494                           	opt stack 17
  4495                           
  4496                           ;user_interrupts.c: 54: LATD = 0x80;
  4497                           
  4498                           ; BSR set to: 0
  4499                           ;incstack = 0
  4500  00158A  0E80               	movlw	128
  4501  00158C  6E8C               	movwf	3980,c	;volatile
  4502                           
  4503                           ;user_interrupts.c: 58: unsigned int result;
  4504                           ;user_interrupts.c: 65: result = ReadTimer1();
  4505  00158E  ECED  F00B         	call	_ReadTimer1	;wreg free
  4506  001592  C001  F01B         	movff	?_ReadTimer1,timer1_int_handler@result
  4507  001596  C002  F01C         	movff	?_ReadTimer1+1,timer1_int_handler@result+1
  4508                           
  4509                           ;user_interrupts.c: 66: ToMainLow_sendmsg(0, 11, (void *) 0);
  4510  00159A  0E0B               	movlw	11
  4511  00159C  6E17               	movwf	ToMainLow_sendmsg@msgtype,c
  4512  00159E  0E00               	movlw	0
  4513  0015A0  6E19               	movwf	ToMainLow_sendmsg@data+1,c
  4514  0015A2  0E00               	movlw	0
  4515  0015A4  6E18               	movwf	ToMainLow_sendmsg@data,c
  4516  0015A6  0E00               	movlw	0
  4517  0015A8  ECBC  F00B         	call	_ToMainLow_sendmsg
  4518                           
  4519                           ;user_interrupts.c: 69: WriteTimer1(0);
  4520  0015AC  0E00               	movlw	0
  4521  0015AE  6E02               	movwf	WriteTimer1@timer1+1,c
  4522  0015B0  0E00               	movlw	0
  4523  0015B2  6E01               	movwf	WriteTimer1@timer1,c
  4524  0015B4  ECE4  F00B         	call	_WriteTimer1	;wreg free
  4525                           
  4526                           ;user_interrupts.c: 73: LATD = 0x00;
  4527  0015B8  0E00               	movlw	0
  4528  0015BA  6E8C               	movwf	3980,c	;volatile
  4529  0015BC  0012               	return	
  4530  0015BE                     __end_of_timer1_int_handler:
  4531                           	opt stack 0
  4532                           pclatu	equ	0xFFB
  4533                           pclath	equ	0xFFA
  4534                           tblptru	equ	0xFF8
  4535                           tblptrh	equ	0xFF7
  4536                           tblptrl	equ	0xFF6
  4537                           tablat	equ	0xFF5
  4538                           prodh	equ	0xFF4
  4539                           prodl	equ	0xFF3
  4540                           intcon	equ	0xFF2
  4541                           postinc0	equ	0xFEE
  4542                           fsr0h	equ	0xFEA
  4543                           fsr0l	equ	0xFE9
  4544                           wreg	equ	0xFE8
  4545                           indf1	equ	0xFE7
  4546                           fsr1h	equ	0xFE2
  4547                           fsr1l	equ	0xFE1
  4548                           bsr	equ	0xFE0
  4549                           indf2	equ	0xFDF
  4550                           postinc2	equ	0xFDE
  4551                           postdec2	equ	0xFDD
  4552                           fsr2h	equ	0xFDA
  4553                           fsr2l	equ	0xFD9
  4554                           status	equ	0xFD8
  4555                           
  4556 ;; *************** function _WriteTimer1 *****************
  4557 ;; Defined at:
  4558 ;;		line 14 in file "C:\Program Files (x86)\Microchip\xc8\v1.32\sources\pic18\plib\Timers\t1write.c"
  4559 ;; Parameters:    Size  Location     Type
  4560 ;;  timer1          2    0[COMRAM] unsigned int 
  4561 ;; Auto vars:     Size  Location     Type
  4562 ;;  timer           2    2[COMRAM] struct Timers
  4563 ;; Return value:  Size  Location     Type
  4564 ;;		None               void
  4565 ;; Registers used:
  4566 ;;		None
  4567 ;; Tracked objects:
  4568 ;;		On entry : 0/0
  4569 ;;		On exit  : 0/0
  4570 ;;		Unchanged: 0/0
  4571 ;; Data sizes:     COMRAM   BANK0   BANK1   BANK2   BANK3   BANK4   BANK5   BANK6   BANK7   BANK8   BANK9  BANK10  BANK1
      +1  BANK12  BANK13  BANK14
  4572 ;;      Params:         2       0       0       0       0       0       0       0       0       0       0       0       
      +0       0       0       0
  4573 ;;      Locals:         2       0       0       0       0       0       0       0       0       0       0       0       
      +0       0       0       0
  4574 ;;      Temps:          0       0       0       0       0       0       0       0       0       0       0       0       
      +0       0       0       0
  4575 ;;      Totals:         4       0       0       0       0       0       0       0       0       0       0       0       
      +0       0       0       0
  4576 ;;Total ram usage:        4 bytes
  4577 ;; Hardware stack levels used:    1
  4578 ;; Hardware stack levels required when called:    5
  4579 ;; This function calls:
  4580 ;;		Nothing
  4581 ;; This function is called by:
  4582 ;;		_timer1_int_handler
  4583 ;; This function uses a non-reentrant model
  4584 ;;
  4585                           
  4586                           	psect	text30
  4587  0017C8                     __ptext30:
  4588                           	opt stack 0
  4589  0017C8                     _WriteTimer1:
  4590                           	opt stack 19
  4591                           
  4592                           ;incstack = 0
  4593  0017C8  C001  F003         	movff	WriteTimer1@timer1,WriteTimer1@timer
  4594  0017CC  C002  F004         	movff	WriteTimer1@timer1+1,WriteTimer1@timer+1
  4595  0017D0  C004  FFCF         	movff	WriteTimer1@timer+1,4047	;volatile
  4596  0017D4  C003  FFCE         	movff	WriteTimer1@timer,4046	;volatile
  4597  0017D8  0012               	return	
  4598  0017DA                     __end_of_WriteTimer1:
  4599                           	opt stack 0
  4600                           pclatu	equ	0xFFB
  4601                           pclath	equ	0xFFA
  4602                           tblptru	equ	0xFF8
  4603                           tblptrh	equ	0xFF7
  4604                           tblptrl	equ	0xFF6
  4605                           tablat	equ	0xFF5
  4606                           prodh	equ	0xFF4
  4607                           prodl	equ	0xFF3
  4608                           intcon	equ	0xFF2
  4609                           postinc0	equ	0xFEE
  4610                           fsr0h	equ	0xFEA
  4611                           fsr0l	equ	0xFE9
  4612                           wreg	equ	0xFE8
  4613                           indf1	equ	0xFE7
  4614                           fsr1h	equ	0xFE2
  4615                           fsr1l	equ	0xFE1
  4616                           bsr	equ	0xFE0
  4617                           indf2	equ	0xFDF
  4618                           postinc2	equ	0xFDE
  4619                           postdec2	equ	0xFDD
  4620                           fsr2h	equ	0xFDA
  4621                           fsr2l	equ	0xFD9
  4622                           status	equ	0xFD8
  4623                           
  4624 ;; *************** function _ToMainLow_sendmsg *****************
  4625 ;; Defined at:
  4626 ;;		line 103 in file "../src/messages.c"
  4627 ;; Parameters:    Size  Location     Type
  4628 ;;  length          1    wreg     unsigned char 
  4629 ;;  msgtype         1   22[COMRAM] unsigned char 
  4630 ;;  data            2   23[COMRAM] PTR void 
  4631 ;;		 -> NULL(0), 
  4632 ;; Auto vars:     Size  Location     Type
  4633 ;;  length          1   25[COMRAM] unsigned char 
  4634 ;; Return value:  Size  Location     Type
  4635 ;;                  1    wreg      char 
  4636 ;; Registers used:
  4637 ;;		wreg, fsr1l, fsr1h, fsr2l, fsr2h, status,2, status,0, prodl, prodh, cstack
  4638 ;; Tracked objects:
  4639 ;;		On entry : 0/0
  4640 ;;		On exit  : 0/0
  4641 ;;		Unchanged: 0/0
  4642 ;; Data sizes:     COMRAM   BANK0   BANK1   BANK2   BANK3   BANK4   BANK5   BANK6   BANK7   BANK8   BANK9  BANK10  BANK1
      +1  BANK12  BANK13  BANK14
  4643 ;;      Params:         3       0       0       0       0       0       0       0       0       0       0       0       
      +0       0       0       0
  4644 ;;      Locals:         1       0       0       0       0       0       0       0       0       0       0       0       
      +0       0       0       0
  4645 ;;      Temps:          0       0       0       0       0       0       0       0       0       0       0       0       
      +0       0       0       0
  4646 ;;      Totals:         4       0       0       0       0       0       0       0       0       0       0       0       
      +0       0       0       0
  4647 ;;Total ram usage:        4 bytes
  4648 ;; Hardware stack levels used:    1
  4649 ;; Hardware stack levels required when called:    7
  4650 ;; This function calls:
  4651 ;;		i1_send_msg
  4652 ;; This function is called by:
  4653 ;;		_timer1_int_handler
  4654 ;; This function uses a non-reentrant model
  4655 ;;
  4656                           
  4657                           	psect	text31
  4658  001778                     __ptext31:
  4659                           	opt stack 0
  4660  001778                     _ToMainLow_sendmsg:
  4661                           	opt stack 17
  4662                           
  4663                           ;incstack = 0
  4664                           ;ToMainLow_sendmsg@length stored from wreg
  4665  001778  6E1A               	movwf	ToMainLow_sendmsg@length,c
  4666                           
  4667                           ;messages.c: 109: return (send_msg(&ToMainLow_MQ, length, msgtype, data));
  4668                           ;	Return value of _ToMainLow_sendmsg is never used
  4669  00177A  0100               	movlb	0	; () banked
  4670  00177C  0E00               	movlw	high _ToMainLow_MQ
  4671  00177E  6E0C               	movwf	i1send_msg@qptr+1,c
  4672  001780  0100               	movlb	0	; () banked
  4673  001782  0E60               	movlw	low _ToMainLow_MQ
  4674  001784  6E0B               	movwf	i1send_msg@qptr,c
  4675  001786  C01A  F00D         	movff	ToMainLow_sendmsg@length,i1send_msg@length
  4676  00178A  C017  F00E         	movff	ToMainLow_sendmsg@msgtype,i1send_msg@msgtype
  4677  00178E  6A10               	clrf	i1send_msg@data+1,c
  4678  001790  C018  F00F         	movff	ToMainLow_sendmsg@data,i1send_msg@data
  4679  001794  EC65  F007         	call	i1_send_msg	;wreg free
  4680  001798  0012               	return	
  4681  00179A                     __end_of_ToMainLow_sendmsg:
  4682                           	opt stack 0
  4683                           pclatu	equ	0xFFB
  4684                           pclath	equ	0xFFA
  4685                           tblptru	equ	0xFF8
  4686                           tblptrh	equ	0xFF7
  4687                           tblptrl	equ	0xFF6
  4688                           tablat	equ	0xFF5
  4689                           prodh	equ	0xFF4
  4690                           prodl	equ	0xFF3
  4691                           intcon	equ	0xFF2
  4692                           postinc0	equ	0xFEE
  4693                           fsr0h	equ	0xFEA
  4694                           fsr0l	equ	0xFE9
  4695                           wreg	equ	0xFE8
  4696                           indf1	equ	0xFE7
  4697                           fsr1h	equ	0xFE2
  4698                           fsr1l	equ	0xFE1
  4699                           bsr	equ	0xFE0
  4700                           indf2	equ	0xFDF
  4701                           postinc2	equ	0xFDE
  4702                           postdec2	equ	0xFDD
  4703                           fsr2h	equ	0xFDA
  4704                           fsr2l	equ	0xFD9
  4705                           status	equ	0xFD8
  4706                           
  4707 ;; *************** function i1_send_msg *****************
  4708 ;; Defined at:
  4709 ;;		line 24 in file "../src/messages.c"
  4710 ;; Parameters:    Size  Location     Type
  4711 ;;  qptr            2   10[COMRAM] PTR struct __msg_queue
  4712 ;;		 -> FromMainHigh_MQ(54), FromMainLow_MQ(54), ToMainHigh_MQ(54), ToMainLow_MQ(54), 
  4713 ;;  length          1   12[COMRAM] unsigned char 
  4714 ;;  msgtype         1   13[COMRAM] unsigned char 
  4715 ;;  data            2   14[COMRAM] PTR void 
  4716 ;;		 -> NULL(0), timer0_int_handler@val(2), i2c_int_handler@error_buf(3), main@t1thread_data(2), 
  4717 ;;		 -> main@ic(28), 
  4718 ;; Auto vars:     Size  Location     Type
  4719 ;;  send_msg        2   20[COMRAM] PTR struct __msg
  4720 ;;		 -> FromMainLow_MQ.queue(52), FromMainHigh_MQ.queue(52), ToMainHigh_MQ.queue(52), ToMainLow_MQ.queue(52), 
  4721 ;;		 -> FromMainHigh_MQ(54), FromMainLow_MQ(54), ToMainHigh_MQ(54), ToMainLow_MQ(54), 
  4722 ;;  send_msg        2   17[COMRAM] unsigned int 
  4723 ;;  send_msg        1   19[COMRAM] unsigned char 
  4724 ;; Return value:  Size  Location     Type
  4725 ;;                  1    wreg      char 
  4726 ;; Registers used:
  4727 ;;		wreg, fsr1l, fsr1h, fsr2l, fsr2h, status,2, status,0, prodl, prodh, cstack
  4728 ;; Tracked objects:
  4729 ;;		On entry : 0/0
  4730 ;;		On exit  : 0/0
  4731 ;;		Unchanged: 0/0
  4732 ;; Data sizes:     COMRAM   BANK0   BANK1   BANK2   BANK3   BANK4   BANK5   BANK6   BANK7   BANK8   BANK9  BANK10  BANK1
      +1  BANK12  BANK13  BANK14
  4733 ;;      Params:         6       0       0       0       0       0       0       0       0       0       0       0       
      +0       0       0       0
  4734 ;;      Locals:         5       0       0       0       0       0       0       0       0       0       0       0       
      +0       0       0       0
  4735 ;;      Temps:          1       0       0       0       0       0       0       0       0       0       0       0       
      +0       0       0       0
  4736 ;;      Totals:        12       0       0       0       0       0       0       0       0       0       0       0       
      +0       0       0       0
  4737 ;;Total ram usage:       12 bytes
  4738 ;; Hardware stack levels used:    1
  4739 ;; Hardware stack levels required when called:    6
  4740 ;; This function calls:
  4741 ;;		i1_memcpy
  4742 ;; This function is called by:
  4743 ;;		_ToMainLow_sendmsg
  4744 ;; This function uses a non-reentrant model
  4745 ;;
  4746                           
  4747                           	psect	text32
  4748  000ECA                     __ptext32:
  4749                           	opt stack 0
  4750  000ECA                     i1_send_msg:
  4751                           	opt stack 17
  4752                           
  4753                           ;messages.c: 25: unsigned char slot;
  4754                           ;messages.c: 27: msg *qmsg;
  4755                           ;messages.c: 28: size_t tlength = length;
  4756                           
  4757                           ;incstack = 0
  4758  000ECA  C00D  F012         	movff	i1send_msg@length,i1send_msg@tlength
  4759  000ECE  6A13               	clrf	i1send_msg@tlength+1,c
  4760                           
  4761                           ;messages.c: 38: slot = qptr->cur_write_ind;
  4762  000ED0  EE20 F034          	lfsr	2,52
  4763  000ED4  500B               	movf	i1send_msg@qptr,w,c
  4764  000ED6  26D9               	addwf	fsr2l,f,c
  4765  000ED8  500C               	movf	i1send_msg@qptr+1,w,c
  4766  000EDA  22DA               	addwfc	fsr2h,f,c
  4767  000EDC  50DF               	movf	indf2,w,c
  4768  000EDE  6E14               	movwf	i1send_msg@slot,c
  4769                           
  4770                           ;messages.c: 39: qmsg = &(qptr->queue[slot]);
  4771  000EE0  5014               	movf	i1send_msg@slot,w,c
  4772  000EE2  0D0D               	mullw	13
  4773  000EE4  50F3               	movf	prodl,w,c
  4774  000EE6  240B               	addwf	i1send_msg@qptr,w,c
  4775  000EE8  6E15               	movwf	i1send_msg@qmsg,c
  4776  000EEA  50F4               	movf	prodh,w,c
  4777  000EEC  200C               	addwfc	i1send_msg@qptr+1,w,c
  4778  000EEE  6E16               	movwf	i1send_msg@qmsg+1,c
  4779                           
  4780                           ;messages.c: 41: if (qmsg->full != 0) {
  4781  000EF0  C015  FFD9         	movff	i1send_msg@qmsg,fsr2l
  4782  000EF4  C016  FFDA         	movff	i1send_msg@qmsg+1,fsr2h
  4783  000EF8  50DF               	movf	indf2,w,c
  4784  000EFA  B4D8               	btfsc	status,2,c
  4785  000EFC  D002               	goto	i1l2038
  4786                           
  4787                           ;messages.c: 42: return (-1);
  4788  000EFE  0EFF               	movlw	255
  4789  000F00  0012               	return	
  4790  000F02                     i1l2038:
  4791                           
  4792                           ;messages.c: 43: }
  4793                           ;messages.c: 46: qmsg->length = length;
  4794  000F02  EE20 F001          	lfsr	2,1
  4795  000F06  5015               	movf	i1send_msg@qmsg,w,c
  4796  000F08  26D9               	addwf	fsr2l,f,c
  4797  000F0A  5016               	movf	i1send_msg@qmsg+1,w,c
  4798  000F0C  22DA               	addwfc	fsr2h,f,c
  4799  000F0E  C00D  FFDF         	movff	i1send_msg@length,indf2
  4800                           
  4801                           ;messages.c: 47: qmsg->msgtype = msgtype;
  4802  000F12  EE20 F002          	lfsr	2,2
  4803  000F16  5015               	movf	i1send_msg@qmsg,w,c
  4804  000F18  26D9               	addwf	fsr2l,f,c
  4805  000F1A  5016               	movf	i1send_msg@qmsg+1,w,c
  4806  000F1C  22DA               	addwfc	fsr2h,f,c
  4807  000F1E  C00E  FFDF         	movff	i1send_msg@msgtype,indf2
  4808                           
  4809                           ;messages.c: 55: memcpy(qmsg->data, data, tlength);
  4810  000F22  0E03               	movlw	3
  4811  000F24  2415               	addwf	i1send_msg@qmsg,w,c
  4812  000F26  6E01               	movwf	i1memcpy@d1,c
  4813  000F28  0E00               	movlw	0
  4814  000F2A  2016               	addwfc	i1send_msg@qmsg+1,w,c
  4815  000F2C  6E02               	movwf	i1memcpy@d1+1,c
  4816  000F2E  C010  F004         	movff	i1send_msg@data+1,i1memcpy@s1+1
  4817  000F32  C00F  F003         	movff	i1send_msg@data,i1memcpy@s1
  4818  000F36  C012  F005         	movff	i1send_msg@tlength,i1memcpy@n
  4819  000F3A  C013  F006         	movff	i1send_msg@tlength+1,i1memcpy@n+1
  4820  000F3E  ECFA  F009         	call	i1_memcpy	;wreg free
  4821                           
  4822                           ;messages.c: 56: qptr->cur_write_ind = (qptr->cur_write_ind + 1) % 4;
  4823  000F42  EE20 F034          	lfsr	2,52
  4824  000F46  500B               	movf	i1send_msg@qptr,w,c
  4825  000F48  26D9               	addwf	fsr2l,f,c
  4826  000F4A  500C               	movf	i1send_msg@qptr+1,w,c
  4827  000F4C  22DA               	addwfc	fsr2h,f,c
  4828  000F4E  EE10 F034          	lfsr	1,52
  4829  000F52  500B               	movf	i1send_msg@qptr,w,c
  4830  000F54  26E1               	addwf	fsr1l,f,c
  4831  000F56  500C               	movf	i1send_msg@qptr+1,w,c
  4832  000F58  22E2               	addwfc	fsr1h,f,c
  4833  000F5A  50E7               	movf	indf1,w,c
  4834  000F5C  6E11               	movwf	??i1_send_msg& (0+255),c
  4835  000F5E  2811               	incf	??i1_send_msg,w,c
  4836  000F60  0B03               	andlw	3
  4837  000F62  6EDF               	movwf	indf2,c
  4838                           
  4839                           ;messages.c: 59: qmsg->full = 1;
  4840  000F64  C015  FFD9         	movff	i1send_msg@qmsg,fsr2l
  4841  000F68  C016  FFDA         	movff	i1send_msg@qmsg+1,fsr2h
  4842  000F6C  0E01               	movlw	1
  4843  000F6E  6EDF               	movwf	indf2,c
  4844                           
  4845                           ;messages.c: 60: return (1);
  4846  000F70  0E01               	movlw	1
  4847  000F72  0012               	return	
  4848  000F74                     __end_ofi1_send_msg:
  4849                           	opt stack 0
  4850                           pclatu	equ	0xFFB
  4851                           pclath	equ	0xFFA
  4852                           tblptru	equ	0xFF8
  4853                           tblptrh	equ	0xFF7
  4854                           tblptrl	equ	0xFF6
  4855                           tablat	equ	0xFF5
  4856                           prodh	equ	0xFF4
  4857                           prodl	equ	0xFF3
  4858                           intcon	equ	0xFF2
  4859                           postinc0	equ	0xFEE
  4860                           fsr0h	equ	0xFEA
  4861                           fsr0l	equ	0xFE9
  4862                           wreg	equ	0xFE8
  4863                           indf1	equ	0xFE7
  4864                           fsr1h	equ	0xFE2
  4865                           fsr1l	equ	0xFE1
  4866                           bsr	equ	0xFE0
  4867                           indf2	equ	0xFDF
  4868                           postinc2	equ	0xFDE
  4869                           postdec2	equ	0xFDD
  4870                           fsr2h	equ	0xFDA
  4871                           fsr2l	equ	0xFD9
  4872                           status	equ	0xFD8
  4873                           
  4874 ;; *************** function i1_memcpy *****************
  4875 ;; Defined at:
  4876 ;;		line 11 in file "C:\Program Files (x86)\Microchip\xc8\v1.32\sources\common\memcpy.c"
  4877 ;; Parameters:    Size  Location     Type
  4878 ;;  d1              2    0[COMRAM] PTR void 
  4879 ;;		 -> FromMainLow_MQ.queue(52), FromMainHigh_MQ.queue(52), ToMainHigh_MQ.queue(52), ToMainLow_MQ.queue(52), 
  4880 ;;		 -> timer0_int_handler@val(2), FromMainHigh_MQ(54), FromMainLow_MQ(54), ToMainHigh_MQ(54), 
  4881 ;;		 -> ToMainLow_MQ(54), main@msgbuffer(11), 
  4882 ;;  s1              2    2[COMRAM] PTR const void 
  4883 ;;		 -> ToMainLow_MQ.data(10), ToMainHigh_MQ.data(10), FromMainLow_MQ.data(10), FromMainHigh_MQ.data(10), 
  4884 ;;		 -> ToMainLow_MQ.queue.data(10), ToMainHigh_MQ.queue.data(10), FromMainHigh_MQ.queue.data(10), FromMainLow_MQ.queue.
      +data(10), 
  4885 ;;		 -> NULL(0), timer0_int_handler@val(2), i2c_int_handler@error_buf(3), FromMainHigh_MQ(54), 
  4886 ;;		 -> FromMainLow_MQ(54), ToMainHigh_MQ(54), ToMainLow_MQ(54), main@t1thread_data(2), 
  4887 ;;		 -> main@ic(28), 
  4888 ;;  n               2    4[COMRAM] unsigned int 
  4889 ;; Auto vars:     Size  Location     Type
  4890 ;;  memcpy          2    8[COMRAM] PTR const unsigned char 
  4891 ;;		 -> ToMainLow_MQ.data(10), ToMainHigh_MQ.data(10), FromMainLow_MQ.data(10), FromMainHigh_MQ.data(10), 
  4892 ;;		 -> ToMainLow_MQ.queue.data(10), ToMainHigh_MQ.queue.data(10), FromMainHigh_MQ.queue.data(10), FromMainLow_MQ.queue.
      +data(10), 
  4893 ;;		 -> NULL(0), timer0_int_handler@val(2), i2c_int_handler@error_buf(3), FromMainHigh_MQ(54), 
  4894 ;;		 -> FromMainLow_MQ(54), ToMainHigh_MQ(54), ToMainLow_MQ(54), main@t1thread_data(2), 
  4895 ;;		 -> main@ic(28), 
  4896 ;;  memcpy          2    6[COMRAM] PTR unsigned char 
  4897 ;;		 -> FromMainLow_MQ.queue(52), FromMainHigh_MQ.queue(52), ToMainHigh_MQ.queue(52), ToMainLow_MQ.queue(52), 
  4898 ;;		 -> timer0_int_handler@val(2), FromMainHigh_MQ(54), FromMainLow_MQ(54), ToMainHigh_MQ(54), 
  4899 ;;		 -> ToMainLow_MQ(54), main@msgbuffer(11), 
  4900 ;; Return value:  Size  Location     Type
  4901 ;;                  2    0[COMRAM] PTR void 
  4902 ;; Registers used:
  4903 ;;		wreg, fsr1l, fsr1h, fsr2l, fsr2h, status,2, status,0
  4904 ;; Tracked objects:
  4905 ;;		On entry : 0/0
  4906 ;;		On exit  : 0/0
  4907 ;;		Unchanged: 0/0
  4908 ;; Data sizes:     COMRAM   BANK0   BANK1   BANK2   BANK3   BANK4   BANK5   BANK6   BANK7   BANK8   BANK9  BANK10  BANK1
      +1  BANK12  BANK13  BANK14
  4909 ;;      Params:         6       0       0       0       0       0       0       0       0       0       0       0       
      +0       0       0       0
  4910 ;;      Locals:         4       0       0       0       0       0       0       0       0       0       0       0       
      +0       0       0       0
  4911 ;;      Temps:          0       0       0       0       0       0       0       0       0       0       0       0       
      +0       0       0       0
  4912 ;;      Totals:        10       0       0       0       0       0       0       0       0       0       0       0       
      +0       0       0       0
  4913 ;;Total ram usage:       10 bytes
  4914 ;; Hardware stack levels used:    1
  4915 ;; Hardware stack levels required when called:    5
  4916 ;; This function calls:
  4917 ;;		Nothing
  4918 ;; This function is called by:
  4919 ;;		i1_send_msg
  4920 ;; This function uses a non-reentrant model
  4921 ;;
  4922                           
  4923                           	psect	text33
  4924  0013F4                     __ptext33:
  4925                           	opt stack 0
  4926  0013F4                     i1_memcpy:
  4927                           	opt stack 17
  4928                           
  4929                           ;incstack = 0
  4930  0013F4  C004  F00A         	movff	i1memcpy@s1+1,i1memcpy@s+1
  4931  0013F8  C003  F009         	movff	i1memcpy@s1,i1memcpy@s
  4932  0013FC  C002  F008         	movff	i1memcpy@d1+1,i1memcpy@d+1
  4933  001400  C001  F007         	movff	i1memcpy@d1,i1memcpy@d
  4934  001404  D00E               	goto	i1l1986
  4935  001406                     i1l1980:
  4936  001406  C009  FFD9         	movff	i1memcpy@s,fsr2l
  4937  00140A  C00A  FFDA         	movff	i1memcpy@s+1,fsr2h
  4938  00140E  C007  FFE1         	movff	i1memcpy@d,fsr1l
  4939  001412  C008  FFE2         	movff	i1memcpy@d+1,fsr1h
  4940  001416  CFDF FFE7          	movff	indf2,indf1
  4941  00141A  4A09               	infsnz	i1memcpy@s,f,c
  4942  00141C  2A0A               	incf	i1memcpy@s+1,f,c
  4943  00141E  4A07               	infsnz	i1memcpy@d,f,c
  4944  001420  2A08               	incf	i1memcpy@d+1,f,c
  4945  001422                     i1l1986:
  4946  001422  0605               	decf	i1memcpy@n,f,c
  4947  001424  A0D8               	btfss	status,0,c
  4948  001426  0606               	decf	i1memcpy@n+1,f,c
  4949  001428  2805               	incf	i1memcpy@n& (0+255),w,c
  4950  00142A  B4D8               	btfsc	status,2,c
  4951  00142C  2806               	incf	(i1memcpy@n+1)& (0+255),w,c
  4952  00142E  B4D8               	btfsc	status,2,c
  4953                           
  4954                           ;	Return value of i1_memcpy is never used
  4955  001430  0012               	return	
  4956  001432  D7E9               	goto	i1l1980
  4957  001434                     __end_ofi1_memcpy:
  4958                           	opt stack 0
  4959                           pclatu	equ	0xFFB
  4960                           pclath	equ	0xFFA
  4961                           tblptru	equ	0xFF8
  4962                           tblptrh	equ	0xFF7
  4963                           tblptrl	equ	0xFF6
  4964                           tablat	equ	0xFF5
  4965                           prodh	equ	0xFF4
  4966                           prodl	equ	0xFF3
  4967                           intcon	equ	0xFF2
  4968                           postinc0	equ	0xFEE
  4969                           fsr0h	equ	0xFEA
  4970                           fsr0l	equ	0xFE9
  4971                           wreg	equ	0xFE8
  4972                           indf1	equ	0xFE7
  4973                           fsr1h	equ	0xFE2
  4974                           fsr1l	equ	0xFE1
  4975                           bsr	equ	0xFE0
  4976                           indf2	equ	0xFDF
  4977                           postinc2	equ	0xFDE
  4978                           postdec2	equ	0xFDD
  4979                           fsr2h	equ	0xFDA
  4980                           fsr2l	equ	0xFD9
  4981                           status	equ	0xFD8
  4982                           
  4983 ;; *************** function _ReadTimer1 *****************
  4984 ;; Defined at:
  4985 ;;		line 15 in file "C:\Program Files (x86)\Microchip\xc8\v1.32\sources\pic18\plib\Timers\t1read.c"
  4986 ;; Parameters:    Size  Location     Type
  4987 ;;		None
  4988 ;; Auto vars:     Size  Location     Type
  4989 ;;  timer           2    2[COMRAM] struct Timers
  4990 ;; Return value:  Size  Location     Type
  4991 ;;                  2    0[COMRAM] unsigned int 
  4992 ;; Registers used:
  4993 ;;		None
  4994 ;; Tracked objects:
  4995 ;;		On entry : 0/0
  4996 ;;		On exit  : 0/0
  4997 ;;		Unchanged: 0/0
  4998 ;; Data sizes:     COMRAM   BANK0   BANK1   BANK2   BANK3   BANK4   BANK5   BANK6   BANK7   BANK8   BANK9  BANK10  BANK1
      +1  BANK12  BANK13  BANK14
  4999 ;;      Params:         2       0       0       0       0       0       0       0       0       0       0       0       
      +0       0       0       0
  5000 ;;      Locals:         2       0       0       0       0       0       0       0       0       0       0       0       
      +0       0       0       0
  5001 ;;      Temps:          0       0       0       0       0       0       0       0       0       0       0       0       
      +0       0       0       0
  5002 ;;      Totals:         4       0       0       0       0       0       0       0       0       0       0       0       
      +0       0       0       0
  5003 ;;Total ram usage:        4 bytes
  5004 ;; Hardware stack levels used:    1
  5005 ;; Hardware stack levels required when called:    5
  5006 ;; This function calls:
  5007 ;;		Nothing
  5008 ;; This function is called by:
  5009 ;;		_timer1_int_handler
  5010 ;; This function uses a non-reentrant model
  5011 ;;
  5012                           
  5013                           	psect	text34
  5014  0017DA                     __ptext34:
  5015                           	opt stack 0
  5016  0017DA                     _ReadTimer1:
  5017                           	opt stack 19
  5018                           
  5019                           ;incstack = 0
  5020  0017DA  CFCE F003          	movff	4046,ReadTimer1@timer	;volatile
  5021  0017DE  CFCF F004          	movff	4047,ReadTimer1@timer+1	;volatile
  5022  0017E2  C003  F001         	movff	ReadTimer1@timer,?_ReadTimer1
  5023  0017E6  C004  F002         	movff	ReadTimer1@timer+1,?_ReadTimer1+1
  5024  0017EA  0012               	return	
  5025  0017EC                     __end_of_ReadTimer1:
  5026                           	opt stack 0
  5027                           pclatu	equ	0xFFB
  5028                           pclath	equ	0xFFA
  5029                           tblptru	equ	0xFF8
  5030                           tblptrh	equ	0xFF7
  5031                           tblptrl	equ	0xFF6
  5032                           tablat	equ	0xFF5
  5033                           prodh	equ	0xFF4
  5034                           prodl	equ	0xFF3
  5035                           intcon	equ	0xFF2
  5036                           postinc0	equ	0xFEE
  5037                           fsr0h	equ	0xFEA
  5038                           fsr0l	equ	0xFE9
  5039                           wreg	equ	0xFE8
  5040                           indf1	equ	0xFE7
  5041                           fsr1h	equ	0xFE2
  5042                           fsr1l	equ	0xFE1
  5043                           bsr	equ	0xFE0
  5044                           indf2	equ	0xFDF
  5045                           postinc2	equ	0xFDE
  5046                           postdec2	equ	0xFDD
  5047                           fsr2h	equ	0xFDA
  5048                           fsr2l	equ	0xFD9
  5049                           status	equ	0xFD8
  5050                           
  5051 ;; *************** function _InterruptHandlerHigh *****************
  5052 ;; Defined at:
  5053 ;;		line 86 in file "../src/interrupts.c"
  5054 ;; Parameters:    Size  Location     Type
  5055 ;;		None
  5056 ;; Auto vars:     Size  Location     Type
  5057 ;;		None
  5058 ;; Return value:  Size  Location     Type
  5059 ;;		None               void
  5060 ;; Registers used:
  5061 ;;		wreg, fsr1l, fsr1h, fsr2l, fsr2h, status,2, status,0, prodl, prodh, cstack
  5062 ;; Tracked objects:
  5063 ;;		On entry : 0/0
  5064 ;;		On exit  : 0/0
  5065 ;;		Unchanged: 0/0
  5066 ;; Data sizes:     COMRAM   BANK0   BANK1   BANK2   BANK3   BANK4   BANK5   BANK6   BANK7   BANK8   BANK9  BANK10  BANK1
      +1  BANK12  BANK13  BANK14
  5067 ;;      Params:         0       0       0       0       0       0       0       0       0       0       0       0       
      +0       0       0       0
  5068 ;;      Locals:         0       0       0       0       0       0       0       0       0       0       0       0       
      +0       0       0       0
  5069 ;;      Temps:          0      14       0       0       0       0       0       0       0       0       0       0       
      +0       0       0       0
  5070 ;;      Totals:         0      14       0       0       0       0       0       0       0       0       0       0       
      +0       0       0       0
  5071 ;;Total ram usage:       14 bytes
  5072 ;; Hardware stack levels used:    1
  5073 ;; Hardware stack levels required when called:    4
  5074 ;; This function calls:
  5075 ;;		_SleepIfOkay
  5076 ;;		_i2c_int_handler
  5077 ;;		_timer0_int_handler
  5078 ;; This function is called by:
  5079 ;;		Interrupt level 2
  5080 ;; This function uses a non-reentrant model
  5081 ;;
  5082                           
  5083                           	psect	intcode
  5084  000008                     __pintcode:
  5085                           	opt stack 0
  5086  000008                     _InterruptHandlerHigh:
  5087                           	opt stack 17
  5088                           
  5089                           ;incstack = 0
  5090  000008  CFFA F0C1          	movff	pclath,??_InterruptHandlerHigh
  5091  00000C  CFFB F0C2          	movff	pclatu,??_InterruptHandlerHigh+1
  5092  000010  CFE9 F0C3          	movff	fsr0l,??_InterruptHandlerHigh+2
  5093  000014  EFBA  F007         	goto	int_func
  5094                           pclatu	equ	0xFFB
  5095                           pclath	equ	0xFFA
  5096                           tblptru	equ	0xFF8
  5097                           tblptrh	equ	0xFF7
  5098                           tblptrl	equ	0xFF6
  5099                           tablat	equ	0xFF5
  5100                           prodh	equ	0xFF4
  5101                           prodl	equ	0xFF3
  5102                           intcon	equ	0xFF2
  5103                           postinc0	equ	0xFEE
  5104                           fsr0h	equ	0xFEA
  5105                           fsr0l	equ	0xFE9
  5106                           wreg	equ	0xFE8
  5107                           indf1	equ	0xFE7
  5108                           fsr1h	equ	0xFE2
  5109                           fsr1l	equ	0xFE1
  5110                           bsr	equ	0xFE0
  5111                           indf2	equ	0xFDF
  5112                           postinc2	equ	0xFDE
  5113                           postdec2	equ	0xFDD
  5114                           fsr2h	equ	0xFDA
  5115                           fsr2l	equ	0xFD9
  5116                           status	equ	0xFD8
  5117                           
  5118                           	psect	intcode_body
  5119  000F74                     __pintcode_body:
  5120                           	opt stack 17
  5121  000F74                     int_func:
  5122                           	opt stack 17
  5123  000F74  CFEA F0C4          	movff	fsr0h,??_InterruptHandlerHigh+3
  5124  000F78  CFE1 F0C5          	movff	fsr1l,??_InterruptHandlerHigh+4
  5125  000F7C  CFE2 F0C6          	movff	fsr1h,??_InterruptHandlerHigh+5
  5126  000F80  CFD9 F0C7          	movff	fsr2l,??_InterruptHandlerHigh+6
  5127  000F84  CFDA F0C8          	movff	fsr2h,??_InterruptHandlerHigh+7
  5128  000F88  CFF3 F0C9          	movff	prodl,??_InterruptHandlerHigh+8
  5129  000F8C  CFF4 F0CA          	movff	prodh,??_InterruptHandlerHigh+9
  5130  000F90  CFF6 F0CB          	movff	tblptrl,??_InterruptHandlerHigh+10
  5131  000F94  CFF7 F0CC          	movff	tblptrh,??_InterruptHandlerHigh+11
  5132  000F98  CFF8 F0CD          	movff	tblptru,??_InterruptHandlerHigh+12
  5133  000F9C  CFF5 F0CE          	movff	tablat,??_InterruptHandlerHigh+13
  5134                           
  5135                           ;interrupts.c: 91: if (PIR1bits.SSPIF) {
  5136  000FA0  A69E               	btfss	3998,3,c	;volatile
  5137  000FA2  D003               	goto	i2l3400
  5138                           
  5139                           ;interrupts.c: 93: PIR1bits.SSPIF = 0;
  5140  000FA4  969E               	bcf	3998,3,c	;volatile
  5141                           
  5142                           ;interrupts.c: 95: i2c_int_handler();
  5143  000FA6  EC69  F000         	call	_i2c_int_handler	;wreg free
  5144  000FAA                     i2l3400:
  5145                           
  5146                           ;interrupts.c: 96: }
  5147                           ;interrupts.c: 99: if (INTCONbits.TMR0IF) {
  5148  000FAA  A4F2               	btfss	intcon,2,c	;volatile
  5149  000FAC  D003               	goto	i2l3406
  5150                           
  5151                           ;interrupts.c: 100: INTCONbits.TMR0IF = 0;
  5152  000FAE  94F2               	bcf	intcon,2,c	;volatile
  5153                           
  5154                           ;interrupts.c: 102: timer0_int_handler();
  5155  000FB0  ECF9  F007         	call	_timer0_int_handler	;wreg free
  5156  000FB4                     i2l3406:
  5157                           
  5158                           ;interrupts.c: 103: }
  5159                           ;interrupts.c: 112: SleepIfOkay();
  5160  000FB4  EC30  F009         	call	_SleepIfOkay	;wreg free
  5161  000FB8  C0CE  FFF5         	movff	??_InterruptHandlerHigh+13,tablat
  5162  000FBC  C0CD  FFF8         	movff	??_InterruptHandlerHigh+12,tblptru
  5163  000FC0  C0CC  FFF7         	movff	??_InterruptHandlerHigh+11,tblptrh
  5164  000FC4  C0CB  FFF6         	movff	??_InterruptHandlerHigh+10,tblptrl
  5165  000FC8  C0CA  FFF4         	movff	??_InterruptHandlerHigh+9,prodh
  5166  000FCC  C0C9  FFF3         	movff	??_InterruptHandlerHigh+8,prodl
  5167  000FD0  C0C8  FFDA         	movff	??_InterruptHandlerHigh+7,fsr2h
  5168  000FD4  C0C7  FFD9         	movff	??_InterruptHandlerHigh+6,fsr2l
  5169  000FD8  C0C6  FFE2         	movff	??_InterruptHandlerHigh+5,fsr1h
  5170  000FDC  C0C5  FFE1         	movff	??_InterruptHandlerHigh+4,fsr1l
  5171  000FE0  C0C4  FFEA         	movff	??_InterruptHandlerHigh+3,fsr0h
  5172  000FE4  C0C3  FFE9         	movff	??_InterruptHandlerHigh+2,fsr0l
  5173  000FE8  C0C2  FFFB         	movff	??_InterruptHandlerHigh+1,pclatu
  5174  000FEC  C0C1  FFFA         	movff	??_InterruptHandlerHigh,pclath
  5175  000FF0  0011               	retfie		f
  5176  000FF2                     __end_of_InterruptHandlerHigh:
  5177                           	opt stack 0
  5178                           pclatu	equ	0xFFB
  5179                           pclath	equ	0xFFA
  5180                           tblptru	equ	0xFF8
  5181                           tblptrh	equ	0xFF7
  5182                           tblptrl	equ	0xFF6
  5183                           tablat	equ	0xFF5
  5184                           prodh	equ	0xFF4
  5185                           prodl	equ	0xFF3
  5186                           intcon	equ	0xFF2
  5187                           postinc0	equ	0xFEE
  5188                           fsr0h	equ	0xFEA
  5189                           fsr0l	equ	0xFE9
  5190                           wreg	equ	0xFE8
  5191                           indf1	equ	0xFE7
  5192                           fsr1h	equ	0xFE2
  5193                           fsr1l	equ	0xFE1
  5194                           bsr	equ	0xFE0
  5195                           indf2	equ	0xFDF
  5196                           postinc2	equ	0xFDE
  5197                           postdec2	equ	0xFDD
  5198                           fsr2h	equ	0xFDA
  5199                           fsr2l	equ	0xFD9
  5200                           status	equ	0xFD8
  5201                           
  5202 ;; *************** function _timer0_int_handler *****************
  5203 ;; Defined at:
  5204 ;;		line 16 in file "../src/user_interrupts.c"
  5205 ;; Parameters:    Size  Location     Type
  5206 ;;		None
  5207 ;; Auto vars:     Size  Location     Type
  5208 ;;  val             2   33[BANK0 ] unsigned int 
  5209 ;;  msgtype         2   31[BANK0 ] int 
  5210 ;;  length          2   29[BANK0 ] int 
  5211 ;; Return value:  Size  Location     Type
  5212 ;;		None               void
  5213 ;; Registers used:
  5214 ;;		wreg, fsr1l, fsr1h, fsr2l, fsr2h, status,2, status,0, prodl, prodh, cstack
  5215 ;; Tracked objects:
  5216 ;;		On entry : 0/0
  5217 ;;		On exit  : 0/0
  5218 ;;		Unchanged: 0/0
  5219 ;; Data sizes:     COMRAM   BANK0   BANK1   BANK2   BANK3   BANK4   BANK5   BANK6   BANK7   BANK8   BANK9  BANK10  BANK1
      +1  BANK12  BANK13  BANK14
  5220 ;;      Params:         0       0       0       0       0       0       0       0       0       0       0       0       
      +0       0       0       0
  5221 ;;      Locals:         0       6       0       0       0       0       0       0       0       0       0       0       
      +0       0       0       0
  5222 ;;      Temps:          0       0       0       0       0       0       0       0       0       0       0       0       
      +0       0       0       0
  5223 ;;      Totals:         0       6       0       0       0       0       0       0       0       0       0       0       
      +0       0       0       0
  5224 ;;Total ram usage:        6 bytes
  5225 ;; Hardware stack levels used:    1
  5226 ;; Hardware stack levels required when called:    3
  5227 ;; This function calls:
  5228 ;;		_FromMainHigh_recvmsg
  5229 ;;		_ToMainHigh_sendmsg
  5230 ;;		_WriteTimer0
  5231 ;; This function is called by:
  5232 ;;		_InterruptHandlerHigh
  5233 ;; This function uses a non-reentrant model
  5234 ;;
  5235                           
  5236                           	psect	text36
  5237  000FF2                     __ptext36:
  5238                           	opt stack 0
  5239  000FF2                     _timer0_int_handler:
  5240                           	opt stack 17
  5241                           
  5242                           ;user_interrupts.c: 20: LATD = 0x40;
  5243                           
  5244                           ;incstack = 0
  5245  000FF2  0E40               	movlw	64
  5246  000FF4  6E8C               	movwf	3980,c	;volatile
  5247                           
  5248                           ;user_interrupts.c: 24: unsigned int val;
  5249                           ;user_interrupts.c: 25: int length, msgtype;
  5250                           ;user_interrupts.c: 32: WriteTimer0(0);
  5251  000FF6  0E00               	movlw	0
  5252  000FF8  0100               	movlb	0	; () banked
  5253  000FFA  6F9E               	movwf	(WriteTimer0@timer0+1)& (0+255),b
  5254  000FFC  0E00               	movlw	0
  5255  000FFE  0100               	movlb	0	; () banked
  5256  001000  6F9D               	movwf	WriteTimer0@timer0& (0+255),b
  5257  001002  ECF6  F00B         	call	_WriteTimer0	;wreg free
  5258                           
  5259                           ;user_interrupts.c: 34: length = FromMainHigh_recvmsg(sizeof(val), (unsigned char *)&msg
      +                          type, (void *) &val);
  5260  001006  0100               	movlb	0	; () banked
  5261  001008  0E00               	movlw	high timer0_int_handler@msgtype
  5262  00100A  0100               	movlb	0	; () banked
  5263  00100C  6FB6               	movwf	(FromMainHigh_recvmsg@msgtype+1)& (0+255),b
  5264  00100E  0100               	movlb	0	; () banked
  5265  001010  0EBC               	movlw	low timer0_int_handler@msgtype
  5266  001012  0100               	movlb	0	; () banked
  5267  001014  6FB5               	movwf	FromMainHigh_recvmsg@msgtype& (0+255),b
  5268  001016  0100               	movlb	0	; () banked
  5269  001018  0E00               	movlw	high timer0_int_handler@val
  5270  00101A  0100               	movlb	0	; () banked
  5271  00101C  6FB8               	movwf	(FromMainHigh_recvmsg@data+1)& (0+255),b
  5272  00101E  0100               	movlb	0	; () banked
  5273  001020  0EBE               	movlw	low timer0_int_handler@val
  5274  001022  0100               	movlb	0	; () banked
  5275  001024  6FB7               	movwf	FromMainHigh_recvmsg@data& (0+255),b
  5276  001026  0E02               	movlw	2
  5277  001028  ECAA  F00A         	call	_FromMainHigh_recvmsg
  5278  00102C  0100               	movlb	0	; () banked
  5279  00102E  6FBA               	movwf	timer0_int_handler@length& (0+255),b
  5280  001030  0100               	movlb	0	; () banked
  5281  001032  6BBB               	clrf	(timer0_int_handler@length+1)& (0+255),b
  5282  001034  0100               	movlb	0	; () banked
  5283  001036  BFBA               	btfsc	timer0_int_handler@length& (0+255),7,b
  5284  001038  07BB               	decf	(timer0_int_handler@length+1)& (0+255),f,b
  5285                           
  5286                           ; BSR set to: 0
  5287                           ;user_interrupts.c: 35: if (length == sizeof (val)) {
  5288  00103A  0100               	movlb	0	; () banked
  5289  00103C  51BA               	movf	timer0_int_handler@length& (0+255),w,b
  5290  00103E  0A02               	xorlw	2
  5291  001040  11BB               	iorwf	(timer0_int_handler@length+1)& (0+255),w,b
  5292  001042  A4D8               	btfss	status,2,c
  5293  001044  D00E               	goto	i2l3186
  5294                           
  5295                           ; BSR set to: 0
  5296                           ;user_interrupts.c: 36: ToMainHigh_sendmsg(sizeof (val), 10, (void *) &val);
  5297  001046  0E0A               	movlw	10
  5298  001048  0100               	movlb	0	; () banked
  5299  00104A  6FB3               	movwf	ToMainHigh_sendmsg@msgtype& (0+255),b
  5300  00104C  0100               	movlb	0	; () banked
  5301  00104E  0E00               	movlw	high timer0_int_handler@val
  5302  001050  0100               	movlb	0	; () banked
  5303  001052  6FB5               	movwf	(ToMainHigh_sendmsg@data+1)& (0+255),b
  5304  001054  0100               	movlb	0	; () banked
  5305  001056  0EBE               	movlw	low timer0_int_handler@val
  5306  001058  0100               	movlb	0	; () banked
  5307  00105A  6FB4               	movwf	ToMainHigh_sendmsg@data& (0+255),b
  5308  00105C  0E02               	movlw	2
  5309  00105E  EC58  F00B         	call	_ToMainHigh_sendmsg
  5310  001062                     i2l3186:
  5311                           
  5312                           ;user_interrupts.c: 37: }
  5313                           ;user_interrupts.c: 41: LATD = 0x00;
  5314  001062  0E00               	movlw	0
  5315  001064  6E8C               	movwf	3980,c	;volatile
  5316  001066  0012               	return	
  5317  001068                     __end_of_timer0_int_handler:
  5318                           	opt stack 0
  5319                           pclatu	equ	0xFFB
  5320                           pclath	equ	0xFFA
  5321                           tblptru	equ	0xFF8
  5322                           tblptrh	equ	0xFF7
  5323                           tblptrl	equ	0xFF6
  5324                           tablat	equ	0xFF5
  5325                           prodh	equ	0xFF4
  5326                           prodl	equ	0xFF3
  5327                           intcon	equ	0xFF2
  5328                           postinc0	equ	0xFEE
  5329                           fsr0h	equ	0xFEA
  5330                           fsr0l	equ	0xFE9
  5331                           wreg	equ	0xFE8
  5332                           indf1	equ	0xFE7
  5333                           fsr1h	equ	0xFE2
  5334                           fsr1l	equ	0xFE1
  5335                           bsr	equ	0xFE0
  5336                           indf2	equ	0xFDF
  5337                           postinc2	equ	0xFDE
  5338                           postdec2	equ	0xFDD
  5339                           fsr2h	equ	0xFDA
  5340                           fsr2l	equ	0xFD9
  5341                           status	equ	0xFD8
  5342                           
  5343 ;; *************** function _WriteTimer0 *****************
  5344 ;; Defined at:
  5345 ;;		line 16 in file "C:\Program Files (x86)\Microchip\xc8\v1.32\sources\pic18\plib\Timers\t0write.c"
  5346 ;; Parameters:    Size  Location     Type
  5347 ;;  timer0          2    0[BANK0 ] unsigned int 
  5348 ;; Auto vars:     Size  Location     Type
  5349 ;;  timer           2    2[BANK0 ] struct Timers
  5350 ;; Return value:  Size  Location     Type
  5351 ;;		None               void
  5352 ;; Registers used:
  5353 ;;		None
  5354 ;; Tracked objects:
  5355 ;;		On entry : 0/0
  5356 ;;		On exit  : 0/0
  5357 ;;		Unchanged: 0/0
  5358 ;; Data sizes:     COMRAM   BANK0   BANK1   BANK2   BANK3   BANK4   BANK5   BANK6   BANK7   BANK8   BANK9  BANK10  BANK1
      +1  BANK12  BANK13  BANK14
  5359 ;;      Params:         0       2       0       0       0       0       0       0       0       0       0       0       
      +0       0       0       0
  5360 ;;      Locals:         0       2       0       0       0       0       0       0       0       0       0       0       
      +0       0       0       0
  5361 ;;      Temps:          0       0       0       0       0       0       0       0       0       0       0       0       
      +0       0       0       0
  5362 ;;      Totals:         0       4       0       0       0       0       0       0       0       0       0       0       
      +0       0       0       0
  5363 ;;Total ram usage:        4 bytes
  5364 ;; Hardware stack levels used:    1
  5365 ;; This function calls:
  5366 ;;		Nothing
  5367 ;; This function is called by:
  5368 ;;		_timer0_int_handler
  5369 ;; This function uses a non-reentrant model
  5370 ;;
  5371                           
  5372                           	psect	text37
  5373  0017EC                     __ptext37:
  5374                           	opt stack 0
  5375  0017EC                     _WriteTimer0:
  5376                           	opt stack 19
  5377                           
  5378                           ;incstack = 0
  5379  0017EC  C09D  F09F         	movff	WriteTimer0@timer0,WriteTimer0@timer
  5380  0017F0  C09E  F0A0         	movff	WriteTimer0@timer0+1,WriteTimer0@timer+1
  5381  0017F4  C0A0  FFD7         	movff	WriteTimer0@timer+1,4055	;volatile
  5382  0017F8  C09F  FFD6         	movff	WriteTimer0@timer,4054	;volatile
  5383  0017FC  0012               	return	
  5384  0017FE                     __end_of_WriteTimer0:
  5385                           	opt stack 0
  5386                           pclatu	equ	0xFFB
  5387                           pclath	equ	0xFFA
  5388                           tblptru	equ	0xFF8
  5389                           tblptrh	equ	0xFF7
  5390                           tblptrl	equ	0xFF6
  5391                           tablat	equ	0xFF5
  5392                           prodh	equ	0xFF4
  5393                           prodl	equ	0xFF3
  5394                           intcon	equ	0xFF2
  5395                           postinc0	equ	0xFEE
  5396                           fsr0h	equ	0xFEA
  5397                           fsr0l	equ	0xFE9
  5398                           wreg	equ	0xFE8
  5399                           indf1	equ	0xFE7
  5400                           fsr1h	equ	0xFE2
  5401                           fsr1l	equ	0xFE1
  5402                           bsr	equ	0xFE0
  5403                           indf2	equ	0xFDF
  5404                           postinc2	equ	0xFDE
  5405                           postdec2	equ	0xFDD
  5406                           fsr2h	equ	0xFDA
  5407                           fsr2l	equ	0xFD9
  5408                           status	equ	0xFD8
  5409                           
  5410 ;; *************** function _FromMainHigh_recvmsg *****************
  5411 ;; Defined at:
  5412 ;;		line 183 in file "../src/messages.c"
  5413 ;; Parameters:    Size  Location     Type
  5414 ;;  maxlength       1    wreg     unsigned char 
  5415 ;;  msgtype         2   24[BANK0 ] PTR unsigned char 
  5416 ;;		 -> timer0_int_handler@msgtype(2), 
  5417 ;;  data            2   26[BANK0 ] PTR void 
  5418 ;;		 -> timer0_int_handler@val(2), 
  5419 ;; Auto vars:     Size  Location     Type
  5420 ;;  maxlength       1   28[BANK0 ] unsigned char 
  5421 ;; Return value:  Size  Location     Type
  5422 ;;                  1    wreg      char 
  5423 ;; Registers used:
  5424 ;;		wreg, fsr1l, fsr1h, fsr2l, fsr2h, status,2, status,0, prodl, prodh, cstack
  5425 ;; Tracked objects:
  5426 ;;		On entry : 0/0
  5427 ;;		On exit  : 0/0
  5428 ;;		Unchanged: 0/0
  5429 ;; Data sizes:     COMRAM   BANK0   BANK1   BANK2   BANK3   BANK4   BANK5   BANK6   BANK7   BANK8   BANK9  BANK10  BANK1
      +1  BANK12  BANK13  BANK14
  5430 ;;      Params:         0       4       0       0       0       0       0       0       0       0       0       0       
      +0       0       0       0
  5431 ;;      Locals:         0       1       0       0       0       0       0       0       0       0       0       0       
      +0       0       0       0
  5432 ;;      Temps:          0       0       0       0       0       0       0       0       0       0       0       0       
      +0       0       0       0
  5433 ;;      Totals:         0       5       0       0       0       0       0       0       0       0       0       0       
      +0       0       0       0
  5434 ;;Total ram usage:        5 bytes
  5435 ;; Hardware stack levels used:    1
  5436 ;; Hardware stack levels required when called:    2
  5437 ;; This function calls:
  5438 ;;		i2_recv_msg
  5439 ;; This function is called by:
  5440 ;;		_timer0_int_handler
  5441 ;; This function uses a non-reentrant model
  5442 ;;
  5443                           
  5444                           	psect	text38
  5445  001554                     __ptext38:
  5446                           	opt stack 0
  5447  001554                     _FromMainHigh_recvmsg:
  5448                           	opt stack 17
  5449                           
  5450                           ;incstack = 0
  5451                           ;FromMainHigh_recvmsg@maxlength stored from wreg
  5452  001554  0100               	movlb	0	; () banked
  5453  001556  6FB9               	movwf	FromMainHigh_recvmsg@maxlength& (0+255),b
  5454                           
  5455                           ; BSR set to: 0
  5456                           ;messages.c: 189: return (recv_msg(&FromMainHigh_MQ, maxlength, msgtype, data));
  5457  001558  0101               	movlb	1	; () banked
  5458  00155A  0E01               	movlw	high _FromMainHigh_MQ
  5459  00155C  0100               	movlb	0	; () banked
  5460  00155E  6FA8               	movwf	(i2recv_msg@qptr+1)& (0+255),b
  5461  001560  0101               	movlb	1	; () banked
  5462  001562  0E00               	movlw	low _FromMainHigh_MQ
  5463  001564  0100               	movlb	0	; () banked
  5464  001566  6FA7               	movwf	i2recv_msg@qptr& (0+255),b
  5465  001568  C0B9  F0A9         	movff	FromMainHigh_recvmsg@maxlength,i2recv_msg@maxlength
  5466  00156C  0100               	movlb	0	; () banked
  5467  00156E  C0B6  F0AB         	movff	FromMainHigh_recvmsg@msgtype+1,i2recv_msg@msgtype+1
  5468  001572  0100               	movlb	0	; () banked
  5469  001574  C0B5  F0AA         	movff	FromMainHigh_recvmsg@msgtype,i2recv_msg@msgtype
  5470  001578  0100               	movlb	0	; () banked
  5471  00157A  C0B8  F0AD         	movff	FromMainHigh_recvmsg@data+1,i2recv_msg@data+1
  5472  00157E  0100               	movlb	0	; () banked
  5473  001580  C0B7  F0AC         	movff	FromMainHigh_recvmsg@data,i2recv_msg@data
  5474  001584  EC03  F005         	call	i2_recv_msg	;wreg free
  5475  001588  0012               	return	
  5476  00158A                     __end_of_FromMainHigh_recvmsg:
  5477                           	opt stack 0
  5478                           pclatu	equ	0xFFB
  5479                           pclath	equ	0xFFA
  5480                           tblptru	equ	0xFF8
  5481                           tblptrh	equ	0xFF7
  5482                           tblptrl	equ	0xFF6
  5483                           tablat	equ	0xFF5
  5484                           prodh	equ	0xFF4
  5485                           prodl	equ	0xFF3
  5486                           intcon	equ	0xFF2
  5487                           postinc0	equ	0xFEE
  5488                           fsr0h	equ	0xFEA
  5489                           fsr0l	equ	0xFE9
  5490                           wreg	equ	0xFE8
  5491                           indf1	equ	0xFE7
  5492                           fsr1h	equ	0xFE2
  5493                           fsr1l	equ	0xFE1
  5494                           bsr	equ	0xFE0
  5495                           indf2	equ	0xFDF
  5496                           postinc2	equ	0xFDE
  5497                           postdec2	equ	0xFDD
  5498                           fsr2h	equ	0xFDA
  5499                           fsr2l	equ	0xFD9
  5500                           status	equ	0xFD8
  5501                           
  5502 ;; *************** function i2_recv_msg *****************
  5503 ;; Defined at:
  5504 ;;		line 63 in file "../src/messages.c"
  5505 ;; Parameters:    Size  Location     Type
  5506 ;;  qptr            2   10[BANK0 ] PTR struct __msg_queue
  5507 ;;		 -> FromMainHigh_MQ(54), FromMainLow_MQ(54), ToMainHigh_MQ(54), ToMainLow_MQ(54), 
  5508 ;;  maxlength       1   12[BANK0 ] unsigned char 
  5509 ;;  msgtype         2   13[BANK0 ] PTR unsigned char 
  5510 ;;		 -> timer0_int_handler@msgtype(2), main@msgtype(1), 
  5511 ;;  data            2   15[BANK0 ] PTR void 
  5512 ;;		 -> timer0_int_handler@val(2), main@msgbuffer(11), 
  5513 ;; Auto vars:     Size  Location     Type
  5514 ;;  recv_msg        2   22[BANK0 ] PTR struct __msg
  5515 ;;		 -> FromMainLow_MQ.queue(52), FromMainHigh_MQ.queue(52), ToMainHigh_MQ.queue(52), ToMainLow_MQ.queue(52), 
  5516 ;;		 -> FromMainHigh_MQ(54), FromMainLow_MQ(54), ToMainHigh_MQ(54), ToMainLow_MQ(54), 
  5517 ;;  recv_msg        2   20[BANK0 ] unsigned int 
  5518 ;;  recv_msg        1   19[BANK0 ] unsigned char 
  5519 ;; Return value:  Size  Location     Type
  5520 ;;                  1    wreg      char 
  5521 ;; Registers used:
  5522 ;;		wreg, fsr1l, fsr1h, fsr2l, fsr2h, status,2, status,0, prodl, prodh, cstack
  5523 ;; Tracked objects:
  5524 ;;		On entry : 0/0
  5525 ;;		On exit  : 0/0
  5526 ;;		Unchanged: 0/0
  5527 ;; Data sizes:     COMRAM   BANK0   BANK1   BANK2   BANK3   BANK4   BANK5   BANK6   BANK7   BANK8   BANK9  BANK10  BANK1
      +1  BANK12  BANK13  BANK14
  5528 ;;      Params:         0       7       0       0       0       0       0       0       0       0       0       0       
      +0       0       0       0
  5529 ;;      Locals:         0       5       0       0       0       0       0       0       0       0       0       0       
      +0       0       0       0
  5530 ;;      Temps:          0       2       0       0       0       0       0       0       0       0       0       0       
      +0       0       0       0
  5531 ;;      Totals:         0      14       0       0       0       0       0       0       0       0       0       0       
      +0       0       0       0
  5532 ;;Total ram usage:       14 bytes
  5533 ;; Hardware stack levels used:    1
  5534 ;; Hardware stack levels required when called:    1
  5535 ;; This function calls:
  5536 ;;		i2_memcpy
  5537 ;; This function is called by:
  5538 ;;		_FromMainHigh_recvmsg
  5539 ;; This function uses a non-reentrant model
  5540 ;;
  5541                           
  5542                           	psect	text39
  5543  000A06                     __ptext39:
  5544                           	opt stack 0
  5545  000A06                     i2_recv_msg:
  5546                           	opt stack 17
  5547                           
  5548                           ;messages.c: 64: unsigned char slot;
  5549                           ;messages.c: 68: msg *qmsg;
  5550                           ;messages.c: 69: size_t tlength;
  5551                           ;messages.c: 72: slot = qptr->cur_read_ind;
  5552                           
  5553                           ;incstack = 0
  5554  000A06  0100               	movlb	0	; () banked
  5555  000A08  EE20 F035          	lfsr	2,53
  5556  000A0C  0100               	movlb	0	; () banked
  5557  000A0E  51A7               	movf	i2recv_msg@qptr& (0+255),w,b
  5558  000A10  26D9               	addwf	fsr2l,f,c
  5559  000A12  0100               	movlb	0	; () banked
  5560  000A14  51A8               	movf	(i2recv_msg@qptr+1)& (0+255),w,b
  5561  000A16  22DA               	addwfc	fsr2h,f,c
  5562  000A18  50DF               	movf	indf2,w,c
  5563  000A1A  0100               	movlb	0	; () banked
  5564  000A1C  6FB0               	movwf	i2recv_msg@slot& (0+255),b
  5565                           
  5566                           ; BSR set to: 0
  5567                           ;messages.c: 73: qmsg = &(qptr->queue[slot]);
  5568  000A1E  0100               	movlb	0	; () banked
  5569  000A20  51B0               	movf	i2recv_msg@slot& (0+255),w,b
  5570  000A22  0D0D               	mullw	13
  5571  000A24  50F3               	movf	prodl,w,c
  5572  000A26  0100               	movlb	0	; () banked
  5573  000A28  25A7               	addwf	i2recv_msg@qptr& (0+255),w,b
  5574  000A2A  0100               	movlb	0	; () banked
  5575  000A2C  6FB3               	movwf	i2recv_msg@qmsg& (0+255),b
  5576  000A2E  50F4               	movf	prodh,w,c
  5577  000A30  0100               	movlb	0	; () banked
  5578  000A32  21A8               	addwfc	(i2recv_msg@qptr+1)& (0+255),w,b
  5579  000A34  0100               	movlb	0	; () banked
  5580  000A36  6FB4               	movwf	(i2recv_msg@qmsg+1)& (0+255),b
  5581                           
  5582                           ; BSR set to: 0
  5583                           ;messages.c: 74: if (qmsg->full == 1) {
  5584  000A38  0E01               	movlw	1
  5585  000A3A  C0B3  FFD9         	movff	i2recv_msg@qmsg,fsr2l
  5586  000A3E  C0B4  FFDA         	movff	i2recv_msg@qmsg+1,fsr2h
  5587  000A42  62DF               	cpfseq	indf2,c
  5588  000A44  D06D               	goto	i2l2896
  5589                           
  5590                           ; BSR set to: 0
  5591                           ;messages.c: 76: if (qmsg->length > maxlength) {
  5592  000A46  0100               	movlb	0	; () banked
  5593  000A48  EE20 F001          	lfsr	2,1
  5594  000A4C  0100               	movlb	0	; () banked
  5595  000A4E  51B3               	movf	i2recv_msg@qmsg& (0+255),w,b
  5596  000A50  26D9               	addwf	fsr2l,f,c
  5597  000A52  0100               	movlb	0	; () banked
  5598  000A54  51B4               	movf	(i2recv_msg@qmsg+1)& (0+255),w,b
  5599  000A56  22DA               	addwfc	fsr2h,f,c
  5600  000A58  50DF               	movf	indf2,w,c
  5601  000A5A  0100               	movlb	0	; () banked
  5602  000A5C  5DA9               	subwf	i2recv_msg@maxlength& (0+255),w,b
  5603  000A5E  B0D8               	btfsc	status,0,c
  5604  000A60  D002               	goto	i2l2880
  5605                           
  5606                           ; BSR set to: 0
  5607                           ;messages.c: 77: return (-3);
  5608  000A62  0EFD               	movlw	253
  5609  000A64  0012               	return	
  5610  000A66                     i2l2880:
  5611                           
  5612                           ; BSR set to: 0
  5613                           ;messages.c: 78: }
  5614                           ;messages.c: 80: tlength = qmsg->length;
  5615  000A66  0100               	movlb	0	; () banked
  5616  000A68  EE20 F001          	lfsr	2,1
  5617  000A6C  0100               	movlb	0	; () banked
  5618  000A6E  51B3               	movf	i2recv_msg@qmsg& (0+255),w,b
  5619  000A70  26D9               	addwf	fsr2l,f,c
  5620  000A72  0100               	movlb	0	; () banked
  5621  000A74  51B4               	movf	(i2recv_msg@qmsg+1)& (0+255),w,b
  5622  000A76  22DA               	addwfc	fsr2h,f,c
  5623  000A78  50DF               	movf	indf2,w,c
  5624  000A7A  0100               	movlb	0	; () banked
  5625  000A7C  6FAE               	movwf	??i2_recv_msg& (0+255),b
  5626  000A7E  0100               	movlb	0	; () banked
  5627  000A80  51AE               	movf	??i2_recv_msg& (0+255),w,b
  5628  000A82  0100               	movlb	0	; () banked
  5629  000A84  6FB1               	movwf	i2recv_msg@tlength& (0+255),b
  5630  000A86  0100               	movlb	0	; () banked
  5631  000A88  6BB2               	clrf	(i2recv_msg@tlength+1)& (0+255),b
  5632                           
  5633                           ; BSR set to: 0
  5634                           ;messages.c: 81: memcpy(data, qmsg->data, tlength);
  5635  000A8A  0100               	movlb	0	; () banked
  5636  000A8C  C0AD  F09E         	movff	i2recv_msg@data+1,i2memcpy@d1+1
  5637  000A90  0100               	movlb	0	; () banked
  5638  000A92  C0AC  F09D         	movff	i2recv_msg@data,i2memcpy@d1
  5639  000A96  0E03               	movlw	3
  5640  000A98  0100               	movlb	0	; () banked
  5641  000A9A  25B3               	addwf	i2recv_msg@qmsg& (0+255),w,b
  5642  000A9C  0100               	movlb	0	; () banked
  5643  000A9E  6FAE               	movwf	??i2_recv_msg& (0+255),b
  5644  000AA0  0E00               	movlw	0
  5645  000AA2  0100               	movlb	0	; () banked
  5646  000AA4  21B4               	addwfc	(i2recv_msg@qmsg+1)& (0+255),w,b
  5647  000AA6  0100               	movlb	0	; () banked
  5648  000AA8  6FAF               	movwf	(??i2_recv_msg+1)& (0+255),b
  5649  000AAA  C0AE  F09F         	movff	??i2_recv_msg,i2memcpy@s1
  5650  000AAE  C0AF  F0A0         	movff	??i2_recv_msg+1,i2memcpy@s1+1
  5651  000AB2  C0B1  F0A1         	movff	i2recv_msg@tlength,i2memcpy@n
  5652  000AB6  C0B2  F0A2         	movff	i2recv_msg@tlength+1,i2memcpy@n+1
  5653  000ABA  ECB2  F009         	call	i2_memcpy	;wreg free
  5654                           
  5655                           ;messages.c: 87: qptr->cur_read_ind = (qptr->cur_read_ind + 1) % 4;
  5656  000ABE  0100               	movlb	0	; () banked
  5657  000AC0  EE20 F035          	lfsr	2,53
  5658  000AC4  0100               	movlb	0	; () banked
  5659  000AC6  51A7               	movf	i2recv_msg@qptr& (0+255),w,b
  5660  000AC8  26D9               	addwf	fsr2l,f,c
  5661  000ACA  0100               	movlb	0	; () banked
  5662  000ACC  51A8               	movf	(i2recv_msg@qptr+1)& (0+255),w,b
  5663  000ACE  22DA               	addwfc	fsr2h,f,c
  5664  000AD0  0100               	movlb	0	; () banked
  5665  000AD2  EE10 F035          	lfsr	1,53
  5666  000AD6  0100               	movlb	0	; () banked
  5667  000AD8  51A7               	movf	i2recv_msg@qptr& (0+255),w,b
  5668  000ADA  26E1               	addwf	fsr1l,f,c
  5669  000ADC  0100               	movlb	0	; () banked
  5670  000ADE  51A8               	movf	(i2recv_msg@qptr+1)& (0+255),w,b
  5671  000AE0  22E2               	addwfc	fsr1h,f,c
  5672  000AE2  50E7               	movf	indf1,w,c
  5673  000AE4  0100               	movlb	0	; () banked
  5674  000AE6  6FAE               	movwf	??i2_recv_msg& (0+255),b
  5675  000AE8  0100               	movlb	0	; () banked
  5676  000AEA  29AE               	incf	??i2_recv_msg& (0+255),w,b
  5677  000AEC  0B03               	andlw	3
  5678  000AEE  6EDF               	movwf	indf2,c
  5679                           
  5680                           ; BSR set to: 0
  5681                           ;messages.c: 89: (*msgtype) = qmsg->msgtype;
  5682  000AF0  0100               	movlb	0	; () banked
  5683  000AF2  EE20 F002          	lfsr	2,2
  5684  000AF6  0100               	movlb	0	; () banked
  5685  000AF8  51B3               	movf	i2recv_msg@qmsg& (0+255),w,b
  5686  000AFA  26D9               	addwf	fsr2l,f,c
  5687  000AFC  0100               	movlb	0	; () banked
  5688  000AFE  51B4               	movf	(i2recv_msg@qmsg+1)& (0+255),w,b
  5689  000B00  22DA               	addwfc	fsr2h,f,c
  5690  000B02  C0AA  FFE1         	movff	i2recv_msg@msgtype,fsr1l
  5691  000B06  C0AB  FFE2         	movff	i2recv_msg@msgtype+1,fsr1h
  5692  000B0A  CFDF FFE7          	movff	indf2,indf1
  5693                           
  5694                           ; BSR set to: 0
  5695                           ;messages.c: 91: qmsg->full = 0;
  5696  000B0E  C0B3  FFD9         	movff	i2recv_msg@qmsg,fsr2l
  5697  000B12  C0B4  FFDA         	movff	i2recv_msg@qmsg+1,fsr2h
  5698  000B16  0E00               	movlw	0
  5699  000B18  6EDF               	movwf	indf2,c
  5700                           
  5701                           ; BSR set to: 0
  5702                           ;messages.c: 92: return (tlength);
  5703  000B1A  0100               	movlb	0	; () banked
  5704  000B1C  51B1               	movf	i2recv_msg@tlength& (0+255),w,b
  5705  000B1E  0012               	return	
  5706  000B20                     i2l2896:
  5707                           
  5708                           ; BSR set to: 0
  5709                           ;messages.c: 94: return (-4);
  5710  000B20  0EFC               	movlw	252
  5711  000B22  0012               	return	
  5712  000B24                     __end_ofi2_recv_msg:
  5713                           	opt stack 0
  5714                           pclatu	equ	0xFFB
  5715                           pclath	equ	0xFFA
  5716                           tblptru	equ	0xFF8
  5717                           tblptrh	equ	0xFF7
  5718                           tblptrl	equ	0xFF6
  5719                           tablat	equ	0xFF5
  5720                           prodh	equ	0xFF4
  5721                           prodl	equ	0xFF3
  5722                           intcon	equ	0xFF2
  5723                           postinc0	equ	0xFEE
  5724                           fsr0h	equ	0xFEA
  5725                           fsr0l	equ	0xFE9
  5726                           wreg	equ	0xFE8
  5727                           indf1	equ	0xFE7
  5728                           fsr1h	equ	0xFE2
  5729                           fsr1l	equ	0xFE1
  5730                           bsr	equ	0xFE0
  5731                           indf2	equ	0xFDF
  5732                           postinc2	equ	0xFDE
  5733                           postdec2	equ	0xFDD
  5734                           fsr2h	equ	0xFDA
  5735                           fsr2l	equ	0xFD9
  5736                           status	equ	0xFD8
  5737                           
  5738 ;; *************** function _i2c_int_handler *****************
  5739 ;; Defined at:
  5740 ;;		line 100 in file "../src/my_i2c.c"
  5741 ;; Parameters:    Size  Location     Type
  5742 ;;		None
  5743 ;; Auto vars:     Size  Location     Type
  5744 ;;  error_buf       3   27[BANK0 ] unsigned char [3]
  5745 ;;  data_read       1   35[BANK0 ] unsigned char 
  5746 ;;  msg_ready       1   34[BANK0 ] unsigned char 
  5747 ;;  msg_to_send     1   33[BANK0 ] unsigned char 
  5748 ;;  i2c_data        1   32[BANK0 ] unsigned char 
  5749 ;;  overrun_erro    1   31[BANK0 ] unsigned char 
  5750 ;;  data_written    1   30[BANK0 ] unsigned char 
  5751 ;; Return value:  Size  Location     Type
  5752 ;;		None               void
  5753 ;; Registers used:
  5754 ;;		wreg, fsr1l, fsr1h, fsr2l, fsr2h, status,2, status,0, prodl, prodh, cstack
  5755 ;; Tracked objects:
  5756 ;;		On entry : 0/0
  5757 ;;		On exit  : 0/0
  5758 ;;		Unchanged: 0/0
  5759 ;; Data sizes:     COMRAM   BANK0   BANK1   BANK2   BANK3   BANK4   BANK5   BANK6   BANK7   BANK8   BANK9  BANK10  BANK1
      +1  BANK12  BANK13  BANK14
  5760 ;;      Params:         0       0       0       0       0       0       0       0       0       0       0       0       
      +0       0       0       0
  5761 ;;      Locals:         0       9       0       0       0       0       0       0       0       0       0       0       
      +0       0       0       0
  5762 ;;      Temps:          0       1       0       0       0       0       0       0       0       0       0       0       
      +0       0       0       0
  5763 ;;      Totals:         0      10       0       0       0       0       0       0       0       0       0       0       
      +0       0       0       0
  5764 ;;Total ram usage:       10 bytes
  5765 ;; Hardware stack levels used:    1
  5766 ;; Hardware stack levels required when called:    3
  5767 ;; This function calls:
  5768 ;;		_ToMainHigh_sendmsg
  5769 ;;		_handle_start
  5770 ;; This function is called by:
  5771 ;;		_InterruptHandlerHigh
  5772 ;; This function uses a non-reentrant model
  5773 ;;
  5774                           
  5775                           	psect	text40
  5776  0000D2                     __ptext40:
  5777                           	opt stack 0
  5778  0000D2                     _i2c_int_handler:
  5779                           	opt stack 17
  5780                           
  5781                           ;my_i2c.c: 104: LATD = 0x10;
  5782                           
  5783                           ; BSR set to: 0
  5784                           ;incstack = 0
  5785  0000D2  0E10               	movlw	16
  5786  0000D4  6E8C               	movwf	3980,c	;volatile
  5787                           
  5788                           ;my_i2c.c: 109: unsigned char i2c_data;
  5789                           ;my_i2c.c: 110: unsigned char data_read = 0;
  5790  0000D6  0E00               	movlw	0
  5791  0000D8  0100               	movlb	0	; () banked
  5792  0000DA  6FC0               	movwf	i2c_int_handler@data_read& (0+255),b
  5793                           
  5794                           ;my_i2c.c: 111: unsigned char data_written = 0;
  5795  0000DC  0E00               	movlw	0
  5796  0000DE  0100               	movlb	0	; () banked
  5797  0000E0  6FBB               	movwf	i2c_int_handler@data_written& (0+255),b
  5798                           
  5799                           ;my_i2c.c: 112: unsigned char msg_ready = 0;
  5800  0000E2  0E00               	movlw	0
  5801  0000E4  0100               	movlb	0	; () banked
  5802  0000E6  6FBF               	movwf	i2c_int_handler@msg_ready& (0+255),b
  5803                           
  5804                           ;my_i2c.c: 113: unsigned char msg_to_send = 0;
  5805  0000E8  0E00               	movlw	0
  5806  0000EA  0100               	movlb	0	; () banked
  5807  0000EC  6FBE               	movwf	i2c_int_handler@msg_to_send& (0+255),b
  5808                           
  5809                           ;my_i2c.c: 114: unsigned char overrun_error = 0;
  5810  0000EE  0E00               	movlw	0
  5811  0000F0  0100               	movlb	0	; () banked
  5812  0000F2  6FBC               	movwf	i2c_int_handler@overrun_error& (0+255),b
  5813                           
  5814                           ; BSR set to: 0
  5815                           ;my_i2c.c: 115: unsigned char error_buf[3];
  5816                           ;my_i2c.c: 118: if (SSPCON1bits.SSPOV == 1) {
  5817  0000F4  ACC6               	btfss	4038,6,c	;volatile
  5818  0000F6  D024               	goto	i2l3046
  5819                           
  5820                           ; BSR set to: 0
  5821                           ;my_i2c.c: 119: SSPCON1bits.SSPOV = 0;
  5822  0000F8  9CC6               	bcf	4038,6,c	;volatile
  5823                           
  5824                           ; BSR set to: 0
  5825                           ;my_i2c.c: 123: ic_ptr->status = 0x5;
  5826  0000FA  0100               	movlb	0	; () banked
  5827  0000FC  EE20 F00C          	lfsr	2,12
  5828  000100  0100               	movlb	0	; () banked
  5829  000102  51CF               	movf	_ic_ptr& (0+255),w,b
  5830  000104  26D9               	addwf	fsr2l,f,c
  5831  000106  0100               	movlb	0	; () banked
  5832  000108  51D0               	movf	(_ic_ptr+1)& (0+255),w,b
  5833  00010A  22DA               	addwfc	fsr2h,f,c
  5834  00010C  0E05               	movlw	5
  5835  00010E  6EDF               	movwf	indf2,c
  5836                           
  5837                           ; BSR set to: 0
  5838                           ;my_i2c.c: 124: overrun_error = 1;
  5839  000110  0E01               	movlw	1
  5840  000112  0100               	movlb	0	; () banked
  5841  000114  6FBC               	movwf	i2c_int_handler@overrun_error& (0+255),b
  5842                           
  5843                           ; BSR set to: 0
  5844                           ;my_i2c.c: 125: ic_ptr->error_count++;
  5845  000116  0100               	movlb	0	; () banked
  5846  000118  EE20 F00E          	lfsr	2,14
  5847  00011C  0100               	movlb	0	; () banked
  5848  00011E  51CF               	movf	_ic_ptr& (0+255),w,b
  5849  000120  26D9               	addwf	fsr2l,f,c
  5850  000122  0100               	movlb	0	; () banked
  5851  000124  51D0               	movf	(_ic_ptr+1)& (0+255),w,b
  5852  000126  22DA               	addwfc	fsr2h,f,c
  5853  000128  2ADF               	incf	indf2,f,c
  5854                           
  5855                           ; BSR set to: 0
  5856                           ;my_i2c.c: 126: ic_ptr->error_code = 0x4;
  5857  00012A  0100               	movlb	0	; () banked
  5858  00012C  EE20 F00D          	lfsr	2,13
  5859  000130  0100               	movlb	0	; () banked
  5860  000132  51CF               	movf	_ic_ptr& (0+255),w,b
  5861  000134  26D9               	addwf	fsr2l,f,c
  5862  000136  0100               	movlb	0	; () banked
  5863  000138  51D0               	movf	(_ic_ptr+1)& (0+255),w,b
  5864  00013A  22DA               	addwfc	fsr2h,f,c
  5865  00013C  0E04               	movlw	4
  5866  00013E  6EDF               	movwf	indf2,c
  5867  000140                     i2l3046:
  5868                           
  5869                           ; BSR set to: 0
  5870                           ;my_i2c.c: 127: }
  5871                           ;my_i2c.c: 129: if (SSPSTATbits.BF == 1) {
  5872  000140  A0C7               	btfss	4039,0,c	;volatile
  5873  000142  D005               	goto	i2l3052
  5874                           
  5875                           ; BSR set to: 0
  5876                           ;my_i2c.c: 130: i2c_data = SSPBUF;
  5877  000144  CFC9 F0BD          	movff	4041,i2c_int_handler@i2c_data	;volatile
  5878                           
  5879                           ; BSR set to: 0
  5880                           ;my_i2c.c: 131: data_read = 1;
  5881  000148  0E01               	movlw	1
  5882  00014A  0100               	movlb	0	; () banked
  5883  00014C  6FC0               	movwf	i2c_int_handler@data_read& (0+255),b
  5884  00014E                     i2l3052:
  5885                           
  5886                           ; BSR set to: 0
  5887                           ;my_i2c.c: 132: }
  5888                           ;my_i2c.c: 134: if (!overrun_error) {
  5889  00014E  0100               	movlb	0	; () banked
  5890  000150  67BC               	tstfsz	i2c_int_handler@overrun_error& (0+255),b
  5891  000152  D19F               	goto	i2l299
  5892  000154  D188               	goto	i2l3140
  5893  000156                     i2l301:
  5894                           
  5895                           ; BSR set to: 0
  5896                           ;my_i2c.c: 137: {
  5897                           ;my_i2c.c: 139: if (SSPSTATbits.S == 1) {
  5898  000156  A6C7               	btfss	4039,3,c	;volatile
  5899  000158  D19C               	goto	i2l299
  5900                           
  5901                           ; BSR set to: 0
  5902                           ;my_i2c.c: 140: handle_start(data_read);
  5903  00015A  0100               	movlb	0	; () banked
  5904  00015C  51C0               	movf	i2c_int_handler@data_read& (0+255),w,b
  5905  00015E  EC00  F007         	call	_handle_start
  5906                           
  5907                           ;my_i2c.c: 142: if (ic_ptr->status == 0x8) {
  5908  000162  0100               	movlb	0	; () banked
  5909  000164  EE20 F00C          	lfsr	2,12
  5910  000168  0100               	movlb	0	; () banked
  5911  00016A  51CF               	movf	_ic_ptr& (0+255),w,b
  5912  00016C  26D9               	addwf	fsr2l,f,c
  5913  00016E  0100               	movlb	0	; () banked
  5914  000170  51D0               	movf	(_ic_ptr+1)& (0+255),w,b
  5915  000172  22DA               	addwfc	fsr2h,f,c
  5916  000174  0E08               	movlw	8
  5917  000176  62DF               	cpfseq	indf2,c
  5918  000178  D18C               	goto	i2l299
  5919                           
  5920                           ; BSR set to: 0
  5921                           ;my_i2c.c: 143: data_read = 0;
  5922  00017A  0E00               	movlw	0
  5923  00017C  0100               	movlb	0	; () banked
  5924  00017E  6FC0               	movwf	i2c_int_handler@data_read& (0+255),b
  5925                           
  5926                           ;my_i2c.c: 144: msg_to_send = 1;
  5927  000180  0E01               	movlw	1
  5928  000182  0100               	movlb	0	; () banked
  5929  000184  6FBE               	movwf	i2c_int_handler@msg_to_send& (0+255),b
  5930  000186  D185               	goto	i2l299
  5931  000188                     i2l305:
  5932                           
  5933                           ; BSR set to: 0
  5934                           ;my_i2c.c: 150: {
  5935                           ;my_i2c.c: 152: if (SSPSTATbits.P == 1) {
  5936  000188  A8C7               	btfss	4039,4,c	;volatile
  5937  00018A  D02A               	goto	i2l3072
  5938                           
  5939                           ; BSR set to: 0
  5940                           ;my_i2c.c: 155: ic_ptr->event_count++;
  5941  00018C  0100               	movlb	0	; () banked
  5942  00018E  EE20 F00B          	lfsr	2,11
  5943  000192  0100               	movlb	0	; () banked
  5944  000194  51CF               	movf	_ic_ptr& (0+255),w,b
  5945  000196  26D9               	addwf	fsr2l,f,c
  5946  000198  0100               	movlb	0	; () banked
  5947  00019A  51D0               	movf	(_ic_ptr+1)& (0+255),w,b
  5948  00019C  22DA               	addwfc	fsr2h,f,c
  5949  00019E  2ADF               	incf	indf2,f,c
  5950                           
  5951                           ; BSR set to: 0
  5952                           ;my_i2c.c: 156: if (data_read) {
  5953  0001A0  0100               	movlb	0	; () banked
  5954  0001A2  51C0               	movf	i2c_int_handler@data_read& (0+255),w,b
  5955  0001A4  B4D8               	btfsc	status,2,c
  5956  0001A6  D154               	goto	L7
  5957                           
  5958                           ; BSR set to: 0
  5959                           ;my_i2c.c: 157: if (SSPSTATbits.D_A == 0) {
  5960  0001A8  BAC7               	btfsc	4039,5,c	;volatile
  5961  0001AA  D004               	goto	i2l3070
  5962                           
  5963                           ; BSR set to: 0
  5964                           ;my_i2c.c: 158: msg_ready = 1;
  5965  0001AC  0E01               	movlw	1
  5966  0001AE  0100               	movlb	0	; () banked
  5967  0001B0  6FBF               	movwf	i2c_int_handler@msg_ready& (0+255),b
  5968                           
  5969                           ;my_i2c.c: 159: } else {
  5970  0001B2  D14E               	goto	L7
  5971  0001B4                     i2l3070:
  5972                           
  5973                           ; BSR set to: 0
  5974                           ;my_i2c.c: 160: ic_ptr->error_count++;
  5975  0001B4  0100               	movlb	0	; () banked
  5976  0001B6  EE20 F00E          	lfsr	2,14
  5977  0001BA  0100               	movlb	0	; () banked
  5978  0001BC  51CF               	movf	_ic_ptr& (0+255),w,b
  5979  0001BE  26D9               	addwf	fsr2l,f,c
  5980  0001C0  0100               	movlb	0	; () banked
  5981  0001C2  51D0               	movf	(_ic_ptr+1)& (0+255),w,b
  5982  0001C4  22DA               	addwfc	fsr2h,f,c
  5983  0001C6  2ADF               	incf	indf2,f,c
  5984                           
  5985                           ;my_i2c.c: 161: ic_ptr->error_code = 0x6;
  5986  0001C8  0100               	movlb	0	; () banked
  5987  0001CA  EE20 F00D          	lfsr	2,13
  5988  0001CE  0100               	movlb	0	; () banked
  5989  0001D0  51CF               	movf	_ic_ptr& (0+255),w,b
  5990  0001D2  26D9               	addwf	fsr2l,f,c
  5991  0001D4  0100               	movlb	0	; () banked
  5992  0001D6  51D0               	movf	(_ic_ptr+1)& (0+255),w,b
  5993  0001D8  22DA               	addwfc	fsr2h,f,c
  5994  0001DA  0E06               	movlw	6
  5995  0001DC  6EDF               	movwf	indf2,c
  5996                           
  5997                           ; BSR set to: 0
  5998  0001DE  D138               	goto	L7
  5999  0001E0                     i2l3072:
  6000                           
  6001                           ; BSR set to: 0
  6002  0001E0  0100               	movlb	0	; () banked
  6003  0001E2  51C0               	movf	i2c_int_handler@data_read& (0+255),w,b
  6004  0001E4  B4D8               	btfsc	status,2,c
  6005  0001E6  D155               	goto	i2l299
  6006                           
  6007                           ; BSR set to: 0
  6008                           ;my_i2c.c: 166: ic_ptr->event_count++;
  6009  0001E8  0100               	movlb	0	; () banked
  6010  0001EA  EE20 F00B          	lfsr	2,11
  6011  0001EE  0100               	movlb	0	; () banked
  6012  0001F0  51CF               	movf	_ic_ptr& (0+255),w,b
  6013  0001F2  26D9               	addwf	fsr2l,f,c
  6014  0001F4  0100               	movlb	0	; () banked
  6015  0001F6  51D0               	movf	(_ic_ptr+1)& (0+255),w,b
  6016  0001F8  22DA               	addwfc	fsr2h,f,c
  6017  0001FA  2ADF               	incf	indf2,f,c
  6018                           
  6019                           ; BSR set to: 0
  6020                           ;my_i2c.c: 167: if (SSPSTATbits.D_A == 0) {
  6021  0001FC  BAC7               	btfsc	4039,5,c	;volatile
  6022  0001FE  D019               	goto	i2l3088
  6023                           
  6024                           ; BSR set to: 0
  6025                           ;my_i2c.c: 168: if (SSPSTATbits.R_W == 0) {
  6026  000200  B4C7               	btfsc	4039,2,c	;volatile
  6027  000202  D00B               	goto	i2l3082
  6028                           
  6029                           ; BSR set to: 0
  6030                           ;my_i2c.c: 169: ic_ptr->status = 0x7;
  6031  000204  0100               	movlb	0	; () banked
  6032  000206  EE20 F00C          	lfsr	2,12
  6033  00020A  0100               	movlb	0	; () banked
  6034  00020C  51CF               	movf	_ic_ptr& (0+255),w,b
  6035  00020E  26D9               	addwf	fsr2l,f,c
  6036  000210  0100               	movlb	0	; () banked
  6037  000212  51D0               	movf	(_ic_ptr+1)& (0+255),w,b
  6038  000214  22DA               	addwfc	fsr2h,f,c
  6039  000216  0E07               	movlw	7
  6040  000218  D071               	goto	L5
  6041  00021A                     i2l3082:
  6042                           
  6043                           ; BSR set to: 0
  6044                           ;my_i2c.c: 171: ic_ptr->status = 0x8;
  6045  00021A  0100               	movlb	0	; () banked
  6046  00021C  EE20 F00C          	lfsr	2,12
  6047  000220  0100               	movlb	0	; () banked
  6048  000222  51CF               	movf	_ic_ptr& (0+255),w,b
  6049  000224  26D9               	addwf	fsr2l,f,c
  6050  000226  0100               	movlb	0	; () banked
  6051  000228  51D0               	movf	(_ic_ptr+1)& (0+255),w,b
  6052  00022A  22DA               	addwfc	fsr2h,f,c
  6053  00022C  0E08               	movlw	8
  6054  00022E  6EDF               	movwf	indf2,c
  6055  000230  D108               	goto	L4
  6056  000232                     i2l3088:
  6057                           
  6058                           ; BSR set to: 0
  6059                           ;my_i2c.c: 177: ic_ptr->error_count++;
  6060  000232  0100               	movlb	0	; () banked
  6061  000234  EE20 F00E          	lfsr	2,14
  6062  000238  0100               	movlb	0	; () banked
  6063  00023A  51CF               	movf	_ic_ptr& (0+255),w,b
  6064  00023C  26D9               	addwf	fsr2l,f,c
  6065  00023E  0100               	movlb	0	; () banked
  6066  000240  51D0               	movf	(_ic_ptr+1)& (0+255),w,b
  6067  000242  22DA               	addwfc	fsr2h,f,c
  6068  000244  2ADF               	incf	indf2,f,c
  6069                           
  6070                           ;my_i2c.c: 178: ic_ptr->status = 0x5;
  6071  000246  0100               	movlb	0	; () banked
  6072  000248  EE20 F00C          	lfsr	2,12
  6073  00024C  0100               	movlb	0	; () banked
  6074  00024E  51CF               	movf	_ic_ptr& (0+255),w,b
  6075  000250  26D9               	addwf	fsr2l,f,c
  6076  000252  0100               	movlb	0	; () banked
  6077  000254  51D0               	movf	(_ic_ptr+1)& (0+255),w,b
  6078  000256  22DA               	addwfc	fsr2h,f,c
  6079  000258  0E05               	movlw	5
  6080  00025A  6EDF               	movwf	indf2,c
  6081                           
  6082                           ;my_i2c.c: 179: ic_ptr->error_code = 0x6;
  6083  00025C  0100               	movlb	0	; () banked
  6084  00025E  EE20 F00D          	lfsr	2,13
  6085  000262  0100               	movlb	0	; () banked
  6086  000264  51CF               	movf	_ic_ptr& (0+255),w,b
  6087  000266  26D9               	addwf	fsr2l,f,c
  6088  000268  0100               	movlb	0	; () banked
  6089  00026A  51D0               	movf	(_ic_ptr+1)& (0+255),w,b
  6090  00026C  22DA               	addwfc	fsr2h,f,c
  6091  00026E  0E06               	movlw	6
  6092  000270  D045               	goto	L5
  6093  000272                     i2l3090:
  6094                           
  6095                           ; BSR set to: 0
  6096                           ;my_i2c.c: 185: {
  6097                           ;my_i2c.c: 186: if (ic_ptr->outbufind < ic_ptr->outbuflen) {
  6098  000272  0100               	movlb	0	; () banked
  6099  000274  EE20 F01A          	lfsr	2,26
  6100  000278  0100               	movlb	0	; () banked
  6101  00027A  51CF               	movf	_ic_ptr& (0+255),w,b
  6102  00027C  26D9               	addwf	fsr2l,f,c
  6103  00027E  0100               	movlb	0	; () banked
  6104  000280  51D0               	movf	(_ic_ptr+1)& (0+255),w,b
  6105  000282  22DA               	addwfc	fsr2h,f,c
  6106  000284  50DF               	movf	indf2,w,c
  6107  000286  0100               	movlb	0	; () banked
  6108  000288  6FB7               	movwf	??_i2c_int_handler& (0+255),b
  6109  00028A  0100               	movlb	0	; () banked
  6110  00028C  EE20 F019          	lfsr	2,25
  6111  000290  0100               	movlb	0	; () banked
  6112  000292  51CF               	movf	_ic_ptr& (0+255),w,b
  6113  000294  26D9               	addwf	fsr2l,f,c
  6114  000296  0100               	movlb	0	; () banked
  6115  000298  51D0               	movf	(_ic_ptr+1)& (0+255),w,b
  6116  00029A  22DA               	addwfc	fsr2h,f,c
  6117  00029C  50DF               	movf	indf2,w,c
  6118  00029E  0100               	movlb	0	; () banked
  6119  0002A0  5DB7               	subwf	??_i2c_int_handler& (0+255),w,b
  6120  0002A2  B0D8               	btfsc	status,0,c
  6121  0002A4  D0D5               	goto	L7
  6122                           
  6123                           ; BSR set to: 0
  6124                           ;my_i2c.c: 187: SSPBUF = ic_ptr->outbuffer[ic_ptr->outbufind];
  6125  0002A6  0100               	movlb	0	; () banked
  6126  0002A8  EE20 F01A          	lfsr	2,26
  6127  0002AC  0100               	movlb	0	; () banked
  6128  0002AE  51CF               	movf	_ic_ptr& (0+255),w,b
  6129  0002B0  26D9               	addwf	fsr2l,f,c
  6130  0002B2  0100               	movlb	0	; () banked
  6131  0002B4  51D0               	movf	(_ic_ptr+1)& (0+255),w,b
  6132  0002B6  22DA               	addwfc	fsr2h,f,c
  6133  0002B8  50DF               	movf	indf2,w,c
  6134  0002BA  0100               	movlb	0	; () banked
  6135  0002BC  6FB7               	movwf	??_i2c_int_handler& (0+255),b
  6136  0002BE  0100               	movlb	0	; () banked
  6137  0002C0  51B7               	movf	??_i2c_int_handler& (0+255),w,b
  6138  0002C2  0D01               	mullw	1
  6139  0002C4  0E0F               	movlw	15
  6140  0002C6  26F3               	addwf	prodl,f,c
  6141  0002C8  0E00               	movlw	0
  6142  0002CA  22F4               	addwfc	prodh,f,c
  6143  0002CC  50F3               	movf	prodl,w,c
  6144  0002CE  0100               	movlb	0	; () banked
  6145  0002D0  25CF               	addwf	_ic_ptr& (0+255),w,b
  6146  0002D2  6ED9               	movwf	fsr2l,c
  6147  0002D4  50F4               	movf	prodh,w,c
  6148  0002D6  0100               	movlb	0	; () banked
  6149  0002D8  21D0               	addwfc	(_ic_ptr+1)& (0+255),w,b
  6150  0002DA  6EDA               	movwf	fsr2h,c
  6151  0002DC  50DF               	movf	indf2,w,c
  6152  0002DE  6EC9               	movwf	4041,c	;volatile
  6153                           
  6154                           ; BSR set to: 0
  6155                           ;my_i2c.c: 188: ic_ptr->outbufind++;
  6156  0002E0  0100               	movlb	0	; () banked
  6157  0002E2  EE20 F01A          	lfsr	2,26
  6158  0002E6  0100               	movlb	0	; () banked
  6159  0002E8  51CF               	movf	_ic_ptr& (0+255),w,b
  6160  0002EA  26D9               	addwf	fsr2l,f,c
  6161  0002EC  0100               	movlb	0	; () banked
  6162  0002EE  51D0               	movf	(_ic_ptr+1)& (0+255),w,b
  6163  0002F0  22DA               	addwfc	fsr2h,f,c
  6164  0002F2  2ADF               	incf	indf2,f,c
  6165                           
  6166                           ; BSR set to: 0
  6167                           ;my_i2c.c: 189: data_written = 1;
  6168  0002F4  0E01               	movlw	1
  6169  0002F6  0100               	movlb	0	; () banked
  6170  0002F8  6FBB               	movwf	i2c_int_handler@data_written& (0+255),b
  6171                           
  6172                           ;my_i2c.c: 190: } else {
  6173  0002FA  D0CB               	goto	i2l299
  6174  0002FC                     L5:
  6175  0002FC  6EDF               	movwf	indf2,c
  6176  0002FE  D0C9               	goto	i2l299
  6177  000300                     i2l319:
  6178                           
  6179                           ; BSR set to: 0
  6180                           ;my_i2c.c: 197: {
  6181                           ;my_i2c.c: 199: if (SSPSTATbits.P == 1) {
  6182  000300  A8C7               	btfss	4039,4,c	;volatile
  6183  000302  D05A               	goto	i2l3118
  6184                           
  6185                           ; BSR set to: 0
  6186                           ;my_i2c.c: 201: ic_ptr->event_count++;
  6187  000304  0100               	movlb	0	; () banked
  6188  000306  EE20 F00B          	lfsr	2,11
  6189  00030A  0100               	movlb	0	; () banked
  6190  00030C  51CF               	movf	_ic_ptr& (0+255),w,b
  6191  00030E  26D9               	addwf	fsr2l,f,c
  6192  000310  0100               	movlb	0	; () banked
  6193  000312  51D0               	movf	(_ic_ptr+1)& (0+255),w,b
  6194  000314  22DA               	addwfc	fsr2h,f,c
  6195  000316  2ADF               	incf	indf2,f,c
  6196                           
  6197                           ; BSR set to: 0
  6198                           ;my_i2c.c: 202: if (data_read) {
  6199  000318  0100               	movlb	0	; () banked
  6200  00031A  51C0               	movf	i2c_int_handler@data_read& (0+255),w,b
  6201  00031C  B4D8               	btfsc	status,2,c
  6202  00031E  D048               	goto	i2l3114
  6203                           
  6204                           ; BSR set to: 0
  6205                           ;my_i2c.c: 203: if (SSPSTATbits.D_A == 1) {
  6206  000320  AAC7               	btfss	4039,5,c	;volatile
  6207  000322  D025               	goto	i2l3112
  6208                           
  6209                           ; BSR set to: 0
  6210                           ;my_i2c.c: 204: ic_ptr->buffer[ic_ptr->buflen] = i2c_data;
  6211  000324  0100               	movlb	0	; () banked
  6212  000326  EE20 F00A          	lfsr	2,10
  6213  00032A  0100               	movlb	0	; () banked
  6214  00032C  51CF               	movf	_ic_ptr& (0+255),w,b
  6215  00032E  26D9               	addwf	fsr2l,f,c
  6216  000330  0100               	movlb	0	; () banked
  6217  000332  51D0               	movf	(_ic_ptr+1)& (0+255),w,b
  6218  000334  22DA               	addwfc	fsr2h,f,c
  6219  000336  50DF               	movf	indf2,w,c
  6220  000338  0100               	movlb	0	; () banked
  6221  00033A  6FB7               	movwf	??_i2c_int_handler& (0+255),b
  6222  00033C  0100               	movlb	0	; () banked
  6223  00033E  51B7               	movf	??_i2c_int_handler& (0+255),w,b
  6224  000340  0D01               	mullw	1
  6225  000342  50F3               	movf	prodl,w,c
  6226  000344  0100               	movlb	0	; () banked
  6227  000346  25CF               	addwf	_ic_ptr& (0+255),w,b
  6228  000348  6ED9               	movwf	fsr2l,c
  6229  00034A  50F4               	movf	prodh,w,c
  6230  00034C  0100               	movlb	0	; () banked
  6231  00034E  21D0               	addwfc	(_ic_ptr+1)& (0+255),w,b
  6232  000350  6EDA               	movwf	fsr2h,c
  6233  000352  0100               	movlb	0	; () banked
  6234  000354  C0BD  FFDF         	movff	i2c_int_handler@i2c_data,indf2
  6235                           
  6236                           ; BSR set to: 0
  6237                           ;my_i2c.c: 205: ic_ptr->buflen++;
  6238  000358  0100               	movlb	0	; () banked
  6239  00035A  EE20 F00A          	lfsr	2,10
  6240  00035E  0100               	movlb	0	; () banked
  6241  000360  51CF               	movf	_ic_ptr& (0+255),w,b
  6242  000362  26D9               	addwf	fsr2l,f,c
  6243  000364  0100               	movlb	0	; () banked
  6244  000366  51D0               	movf	(_ic_ptr+1)& (0+255),w,b
  6245  000368  22DA               	addwfc	fsr2h,f,c
  6246  00036A  2ADF               	incf	indf2,f,c
  6247  00036C  D021               	goto	i2l3114
  6248  00036E                     i2l3112:
  6249                           
  6250                           ; BSR set to: 0
  6251                           ;my_i2c.c: 208: ic_ptr->error_count++;
  6252  00036E  0100               	movlb	0	; () banked
  6253  000370  EE20 F00E          	lfsr	2,14
  6254  000374  0100               	movlb	0	; () banked
  6255  000376  51CF               	movf	_ic_ptr& (0+255),w,b
  6256  000378  26D9               	addwf	fsr2l,f,c
  6257  00037A  0100               	movlb	0	; () banked
  6258  00037C  51D0               	movf	(_ic_ptr+1)& (0+255),w,b
  6259  00037E  22DA               	addwfc	fsr2h,f,c
  6260  000380  2ADF               	incf	indf2,f,c
  6261                           
  6262                           ;my_i2c.c: 209: ic_ptr->error_code = 0x6;
  6263  000382  0100               	movlb	0	; () banked
  6264  000384  EE20 F00D          	lfsr	2,13
  6265  000388  0100               	movlb	0	; () banked
  6266  00038A  51CF               	movf	_ic_ptr& (0+255),w,b
  6267  00038C  26D9               	addwf	fsr2l,f,c
  6268  00038E  0100               	movlb	0	; () banked
  6269  000390  51D0               	movf	(_ic_ptr+1)& (0+255),w,b
  6270  000392  22DA               	addwfc	fsr2h,f,c
  6271  000394  0E06               	movlw	6
  6272  000396  6EDF               	movwf	indf2,c
  6273                           
  6274                           ;my_i2c.c: 210: ic_ptr->status = 0x5;
  6275  000398  0100               	movlb	0	; () banked
  6276  00039A  EE20 F00C          	lfsr	2,12
  6277  00039E  0100               	movlb	0	; () banked
  6278  0003A0  51CF               	movf	_ic_ptr& (0+255),w,b
  6279  0003A2  26D9               	addwf	fsr2l,f,c
  6280  0003A4  0100               	movlb	0	; () banked
  6281  0003A6  51D0               	movf	(_ic_ptr+1)& (0+255),w,b
  6282  0003A8  22DA               	addwfc	fsr2h,f,c
  6283  0003AA  0E05               	movlw	5
  6284  0003AC  6EDF               	movwf	indf2,c
  6285  0003AE  D050               	goto	L7
  6286  0003B0                     i2l3114:
  6287                           
  6288                           ; BSR set to: 0
  6289                           ;my_i2c.c: 213: msg_ready = 1;
  6290  0003B0  0E01               	movlw	1
  6291  0003B2  0100               	movlb	0	; () banked
  6292  0003B4  6FBF               	movwf	i2c_int_handler@msg_ready& (0+255),b
  6293                           
  6294                           ; BSR set to: 0
  6295  0003B6  D04C               	goto	L7
  6296  0003B8                     i2l3118:
  6297                           
  6298                           ; BSR set to: 0
  6299  0003B8  0100               	movlb	0	; () banked
  6300  0003BA  51C0               	movf	i2c_int_handler@data_read& (0+255),w,b
  6301  0003BC  B4D8               	btfsc	status,2,c
  6302  0003BE  D069               	goto	i2l299
  6303                           
  6304                           ; BSR set to: 0
  6305                           ;my_i2c.c: 217: ic_ptr->event_count++;
  6306  0003C0  0100               	movlb	0	; () banked
  6307  0003C2  EE20 F00B          	lfsr	2,11
  6308  0003C6  0100               	movlb	0	; () banked
  6309  0003C8  51CF               	movf	_ic_ptr& (0+255),w,b
  6310  0003CA  26D9               	addwf	fsr2l,f,c
  6311  0003CC  0100               	movlb	0	; () banked
  6312  0003CE  51D0               	movf	(_ic_ptr+1)& (0+255),w,b
  6313  0003D0  22DA               	addwfc	fsr2h,f,c
  6314  0003D2  2ADF               	incf	indf2,f,c
  6315                           
  6316                           ; BSR set to: 0
  6317                           ;my_i2c.c: 218: if (SSPSTATbits.D_A == 1) {
  6318  0003D4  AAC7               	btfss	4039,5,c	;volatile
  6319  0003D6  D025               	goto	i2l327
  6320                           
  6321                           ; BSR set to: 0
  6322                           ;my_i2c.c: 219: ic_ptr->buffer[ic_ptr->buflen] = i2c_data;
  6323  0003D8  0100               	movlb	0	; () banked
  6324  0003DA  EE20 F00A          	lfsr	2,10
  6325  0003DE  0100               	movlb	0	; () banked
  6326  0003E0  51CF               	movf	_ic_ptr& (0+255),w,b
  6327  0003E2  26D9               	addwf	fsr2l,f,c
  6328  0003E4  0100               	movlb	0	; () banked
  6329  0003E6  51D0               	movf	(_ic_ptr+1)& (0+255),w,b
  6330  0003E8  22DA               	addwfc	fsr2h,f,c
  6331  0003EA  50DF               	movf	indf2,w,c
  6332  0003EC  0100               	movlb	0	; () banked
  6333  0003EE  6FB7               	movwf	??_i2c_int_handler& (0+255),b
  6334  0003F0  0100               	movlb	0	; () banked
  6335  0003F2  51B7               	movf	??_i2c_int_handler& (0+255),w,b
  6336  0003F4  0D01               	mullw	1
  6337  0003F6  50F3               	movf	prodl,w,c
  6338  0003F8  0100               	movlb	0	; () banked
  6339  0003FA  25CF               	addwf	_ic_ptr& (0+255),w,b
  6340  0003FC  6ED9               	movwf	fsr2l,c
  6341  0003FE  50F4               	movf	prodh,w,c
  6342  000400  0100               	movlb	0	; () banked
  6343  000402  21D0               	addwfc	(_ic_ptr+1)& (0+255),w,b
  6344  000404  6EDA               	movwf	fsr2h,c
  6345  000406  0100               	movlb	0	; () banked
  6346  000408  C0BD  FFDF         	movff	i2c_int_handler@i2c_data,indf2
  6347                           
  6348                           ; BSR set to: 0
  6349                           ;my_i2c.c: 220: ic_ptr->buflen++;
  6350  00040C  0100               	movlb	0	; () banked
  6351  00040E  EE20 F00A          	lfsr	2,10
  6352  000412  0100               	movlb	0	; () banked
  6353  000414  51CF               	movf	_ic_ptr& (0+255),w,b
  6354  000416  26D9               	addwf	fsr2l,f,c
  6355  000418  0100               	movlb	0	; () banked
  6356  00041A  51D0               	movf	(_ic_ptr+1)& (0+255),w,b
  6357  00041C  22DA               	addwfc	fsr2h,f,c
  6358  00041E  2ADF               	incf	indf2,f,c
  6359                           
  6360                           ;my_i2c.c: 221: } else {
  6361  000420  D038               	goto	i2l299
  6362  000422                     i2l327:
  6363                           
  6364                           ; BSR set to: 0
  6365                           ;my_i2c.c: 222: if (SSPSTATbits.R_W == 1) {
  6366  000422  A4C7               	btfss	4039,2,c	;volatile
  6367  000424  D6C7               	goto	i2l3070
  6368                           
  6369                           ; BSR set to: 0
  6370                           ;my_i2c.c: 223: ic_ptr->status = 0x8;
  6371  000426  0100               	movlb	0	; () banked
  6372  000428  EE20 F00C          	lfsr	2,12
  6373  00042C  0100               	movlb	0	; () banked
  6374  00042E  51CF               	movf	_ic_ptr& (0+255),w,b
  6375  000430  26D9               	addwf	fsr2l,f,c
  6376  000432  0100               	movlb	0	; () banked
  6377  000434  51D0               	movf	(_ic_ptr+1)& (0+255),w,b
  6378  000436  22DA               	addwfc	fsr2h,f,c
  6379  000438  0E08               	movlw	8
  6380  00043A  6EDF               	movwf	indf2,c
  6381                           
  6382                           ; BSR set to: 0
  6383                           ;my_i2c.c: 224: msg_ready = 1;
  6384  00043C  0E01               	movlw	1
  6385  00043E  0100               	movlb	0	; () banked
  6386  000440  6FBF               	movwf	i2c_int_handler@msg_ready& (0+255),b
  6387  000442                     L4:
  6388                           
  6389                           ; BSR set to: 0
  6390                           ;my_i2c.c: 225: msg_to_send = 1;
  6391  000442  0E01               	movlw	1
  6392  000444  0100               	movlb	0	; () banked
  6393  000446  6FBE               	movwf	i2c_int_handler@msg_to_send& (0+255),b
  6394                           
  6395                           ; BSR set to: 0
  6396                           ;my_i2c.c: 227: data_read = 0;
  6397  000448  0E00               	movlw	0
  6398  00044A  0100               	movlb	0	; () banked
  6399  00044C  6FC0               	movwf	i2c_int_handler@data_read& (0+255),b
  6400                           
  6401                           ;my_i2c.c: 228: } else {
  6402  00044E  D021               	goto	i2l299
  6403  000450                     L7:
  6404                           
  6405                           ;my_i2c.c: 231: ic_ptr->status = 0x5;
  6406  000450  0100               	movlb	0	; () banked
  6407  000452  EE20 F00C          	lfsr	2,12
  6408  000456  0100               	movlb	0	; () banked
  6409  000458  51CF               	movf	_ic_ptr& (0+255),w,b
  6410  00045A  26D9               	addwf	fsr2l,f,c
  6411  00045C  0100               	movlb	0	; () banked
  6412  00045E  51D0               	movf	(_ic_ptr+1)& (0+255),w,b
  6413  000460  22DA               	addwfc	fsr2h,f,c
  6414  000462  0E05               	movlw	5
  6415  000464  D74B               	goto	L5
  6416  000466                     i2l3140:
  6417                           
  6418                           ; BSR set to: 0
  6419  000466  0100               	movlb	0	; () banked
  6420  000468  EE20 F00C          	lfsr	2,12
  6421  00046C  0100               	movlb	0	; () banked
  6422  00046E  51CF               	movf	_ic_ptr& (0+255),w,b
  6423  000470  26D9               	addwf	fsr2l,f,c
  6424  000472  0100               	movlb	0	; () banked
  6425  000474  51D0               	movf	(_ic_ptr+1)& (0+255),w,b
  6426  000476  22DA               	addwfc	fsr2h,f,c
  6427  000478  50DF               	movf	indf2,w,c
  6428                           
  6429                           ; Switch size 1, requested type "space"
  6430                           ; Number of cases is 4, Range of values is 5 to 8
  6431                           ; switch strategies available:
  6432                           ; Name         Instructions Cycles
  6433                           ; simple_byte           13     7 (average)
  6434                           ;	Chosen strategy is simple_byte
  6435  00047A  0A05               	xorlw	5	; case 5
  6436  00047C  B4D8               	btfsc	status,2,c
  6437  00047E  D66B               	goto	i2l301
  6438  000480  0A03               	xorlw	3	; case 6
  6439  000482  B4D8               	btfsc	status,2,c
  6440  000484  D681               	goto	i2l305
  6441  000486  0A01               	xorlw	1	; case 7
  6442  000488  B4D8               	btfsc	status,2,c
  6443  00048A  D73A               	goto	i2l319
  6444  00048C  0A0F               	xorlw	15	; case 8
  6445  00048E  B4D8               	btfsc	status,2,c
  6446  000490  D6F0               	goto	i2l3090
  6447  000492                     i2l299:
  6448                           
  6449                           ; BSR set to: 0
  6450                           ;my_i2c.c: 238: }
  6451                           ;my_i2c.c: 241: if (data_read || data_written) {
  6452  000492  0100               	movlb	0	; () banked
  6453  000494  67C0               	tstfsz	i2c_int_handler@data_read& (0+255),b
  6454  000496  D004               	goto	i2l333
  6455                           
  6456                           ; BSR set to: 0
  6457  000498  0100               	movlb	0	; () banked
  6458  00049A  51BB               	movf	i2c_int_handler@data_written& (0+255),w,b
  6459  00049C  B4D8               	btfsc	status,2,c
  6460  00049E  D002               	goto	i2l3146
  6461  0004A0                     i2l333:
  6462                           
  6463                           ; BSR set to: 0
  6464                           ;my_i2c.c: 243: if (SSPCON1bits.CKP == 0) {
  6465  0004A0  A8C6               	btfss	4038,4,c	;volatile
  6466                           
  6467                           ; BSR set to: 0
  6468                           ;my_i2c.c: 244: SSPCON1bits.CKP = 1;
  6469  0004A2  88C6               	bsf	4038,4,c	;volatile
  6470  0004A4                     i2l3146:
  6471                           
  6472                           ; BSR set to: 0
  6473                           ;my_i2c.c: 245: }
  6474                           ;my_i2c.c: 246: }
  6475                           ;my_i2c.c: 249: if ((ic_ptr->buflen > 10 - 2) && (!msg_ready)) {
  6476  0004A4  0100               	movlb	0	; () banked
  6477  0004A6  EE20 F00A          	lfsr	2,10
  6478  0004AA  0100               	movlb	0	; () banked
  6479  0004AC  51CF               	movf	_ic_ptr& (0+255),w,b
  6480  0004AE  26D9               	addwf	fsr2l,f,c
  6481  0004B0  0100               	movlb	0	; () banked
  6482  0004B2  51D0               	movf	(_ic_ptr+1)& (0+255),w,b
  6483  0004B4  22DA               	addwfc	fsr2h,f,c
  6484  0004B6  0E08               	movlw	8
  6485  0004B8  64DF               	cpfsgt	indf2,c
  6486  0004BA  D023               	goto	i2l3152
  6487                           
  6488                           ; BSR set to: 0
  6489  0004BC  0100               	movlb	0	; () banked
  6490  0004BE  67BF               	tstfsz	i2c_int_handler@msg_ready& (0+255),b
  6491  0004C0  D020               	goto	i2l3152
  6492                           
  6493                           ; BSR set to: 0
  6494                           ;my_i2c.c: 250: ic_ptr->status = 0x5;
  6495  0004C2  0100               	movlb	0	; () banked
  6496  0004C4  EE20 F00C          	lfsr	2,12
  6497  0004C8  0100               	movlb	0	; () banked
  6498  0004CA  51CF               	movf	_ic_ptr& (0+255),w,b
  6499  0004CC  26D9               	addwf	fsr2l,f,c
  6500  0004CE  0100               	movlb	0	; () banked
  6501  0004D0  51D0               	movf	(_ic_ptr+1)& (0+255),w,b
  6502  0004D2  22DA               	addwfc	fsr2h,f,c
  6503  0004D4  0E05               	movlw	5
  6504  0004D6  6EDF               	movwf	indf2,c
  6505                           
  6506                           ;my_i2c.c: 251: ic_ptr->error_count++;
  6507  0004D8  0100               	movlb	0	; () banked
  6508  0004DA  EE20 F00E          	lfsr	2,14
  6509  0004DE  0100               	movlb	0	; () banked
  6510  0004E0  51CF               	movf	_ic_ptr& (0+255),w,b
  6511  0004E2  26D9               	addwf	fsr2l,f,c
  6512  0004E4  0100               	movlb	0	; () banked
  6513  0004E6  51D0               	movf	(_ic_ptr+1)& (0+255),w,b
  6514  0004E8  22DA               	addwfc	fsr2h,f,c
  6515  0004EA  2ADF               	incf	indf2,f,c
  6516                           
  6517                           ;my_i2c.c: 252: ic_ptr->error_code = 0x7;
  6518  0004EC  0100               	movlb	0	; () banked
  6519  0004EE  EE20 F00D          	lfsr	2,13
  6520  0004F2  0100               	movlb	0	; () banked
  6521  0004F4  51CF               	movf	_ic_ptr& (0+255),w,b
  6522  0004F6  26D9               	addwf	fsr2l,f,c
  6523  0004F8  0100               	movlb	0	; () banked
  6524  0004FA  51D0               	movf	(_ic_ptr+1)& (0+255),w,b
  6525  0004FC  22DA               	addwfc	fsr2h,f,c
  6526  0004FE  0E07               	movlw	7
  6527  000500  6EDF               	movwf	indf2,c
  6528  000502                     i2l3152:
  6529                           
  6530                           ; BSR set to: 0
  6531                           ;my_i2c.c: 253: }
  6532                           ;my_i2c.c: 255: if (msg_ready) {
  6533  000502  0100               	movlb	0	; () banked
  6534  000504  51BF               	movf	i2c_int_handler@msg_ready& (0+255),w,b
  6535  000506  B4D8               	btfsc	status,2,c
  6536  000508  D03F               	goto	i2l3160
  6537                           
  6538                           ; BSR set to: 0
  6539                           ;my_i2c.c: 256: ic_ptr->buffer[ic_ptr->buflen] = ic_ptr->event_count;
  6540  00050A  0100               	movlb	0	; () banked
  6541  00050C  EE20 F00B          	lfsr	2,11
  6542  000510  0100               	movlb	0	; () banked
  6543  000512  51CF               	movf	_ic_ptr& (0+255),w,b
  6544  000514  26D9               	addwf	fsr2l,f,c
  6545  000516  0100               	movlb	0	; () banked
  6546  000518  51D0               	movf	(_ic_ptr+1)& (0+255),w,b
  6547  00051A  22DA               	addwfc	fsr2h,f,c
  6548  00051C  0100               	movlb	0	; () banked
  6549  00051E  EE10 F00A          	lfsr	1,10
  6550  000522  0100               	movlb	0	; () banked
  6551  000524  51CF               	movf	_ic_ptr& (0+255),w,b
  6552  000526  26E1               	addwf	fsr1l,f,c
  6553  000528  0100               	movlb	0	; () banked
  6554  00052A  51D0               	movf	(_ic_ptr+1)& (0+255),w,b
  6555  00052C  22E2               	addwfc	fsr1h,f,c
  6556  00052E  50E7               	movf	indf1,w,c
  6557  000530  0100               	movlb	0	; () banked
  6558  000532  6FB7               	movwf	??_i2c_int_handler& (0+255),b
  6559  000534  0100               	movlb	0	; () banked
  6560  000536  51B7               	movf	??_i2c_int_handler& (0+255),w,b
  6561  000538  0D01               	mullw	1
  6562  00053A  50F3               	movf	prodl,w,c
  6563  00053C  0100               	movlb	0	; () banked
  6564  00053E  25CF               	addwf	_ic_ptr& (0+255),w,b
  6565  000540  6EE1               	movwf	fsr1l,c
  6566  000542  50F4               	movf	prodh,w,c
  6567  000544  0100               	movlb	0	; () banked
  6568  000546  21D0               	addwfc	(_ic_ptr+1)& (0+255),w,b
  6569  000548  6EE2               	movwf	fsr1h,c
  6570  00054A  CFDF FFE7          	movff	indf2,indf1
  6571                           
  6572                           ; BSR set to: 0
  6573                           ;my_i2c.c: 257: ToMainHigh_sendmsg(ic_ptr->buflen + 1, 40, (void *) ic_ptr->buffer);
  6574  00054E  0E28               	movlw	40
  6575  000550  0100               	movlb	0	; () banked
  6576  000552  6FB3               	movwf	ToMainHigh_sendmsg@msgtype& (0+255),b
  6577  000554  0100               	movlb	0	; () banked
  6578  000556  C0D0  F0B5         	movff	_ic_ptr+1,ToMainHigh_sendmsg@data+1
  6579  00055A  0100               	movlb	0	; () banked
  6580  00055C  C0CF  F0B4         	movff	_ic_ptr,ToMainHigh_sendmsg@data
  6581  000560  0100               	movlb	0	; () banked
  6582  000562  EE20 F00A          	lfsr	2,10
  6583  000566  0100               	movlb	0	; () banked
  6584  000568  51CF               	movf	_ic_ptr& (0+255),w,b
  6585  00056A  26D9               	addwf	fsr2l,f,c
  6586  00056C  0100               	movlb	0	; () banked
  6587  00056E  51D0               	movf	(_ic_ptr+1)& (0+255),w,b
  6588  000570  22DA               	addwfc	fsr2h,f,c
  6589  000572  50DF               	movf	indf2,w,c
  6590  000574  0100               	movlb	0	; () banked
  6591  000576  6FB7               	movwf	??_i2c_int_handler& (0+255),b
  6592  000578  0100               	movlb	0	; () banked
  6593  00057A  29B7               	incf	??_i2c_int_handler& (0+255),w,b
  6594  00057C  EC58  F00B         	call	_ToMainHigh_sendmsg
  6595                           
  6596                           ;my_i2c.c: 258: ic_ptr->buflen = 0;
  6597  000580  0100               	movlb	0	; () banked
  6598  000582  EE20 F00A          	lfsr	2,10
  6599  000586  D041               	goto	L6
  6600  000588                     i2l3160:
  6601                           
  6602                           ; BSR set to: 0
  6603  000588  0100               	movlb	0	; () banked
  6604  00058A  EE20 F00E          	lfsr	2,14
  6605  00058E  0100               	movlb	0	; () banked
  6606  000590  51CF               	movf	_ic_ptr& (0+255),w,b
  6607  000592  26D9               	addwf	fsr2l,f,c
  6608  000594  0100               	movlb	0	; () banked
  6609  000596  51D0               	movf	(_ic_ptr+1)& (0+255),w,b
  6610  000598  22DA               	addwfc	fsr2h,f,c
  6611  00059A  50DF               	movf	indf2,w,c
  6612  00059C  B4D8               	btfsc	status,2,c
  6613  00059E  D03D               	goto	i2l3168
  6614                           
  6615                           ; BSR set to: 0
  6616                           ;my_i2c.c: 260: error_buf[0] = ic_ptr->error_count;
  6617  0005A0  0100               	movlb	0	; () banked
  6618  0005A2  EE20 F00E          	lfsr	2,14
  6619  0005A6  0100               	movlb	0	; () banked
  6620  0005A8  51CF               	movf	_ic_ptr& (0+255),w,b
  6621  0005AA  26D9               	addwf	fsr2l,f,c
  6622  0005AC  0100               	movlb	0	; () banked
  6623  0005AE  51D0               	movf	(_ic_ptr+1)& (0+255),w,b
  6624  0005B0  22DA               	addwfc	fsr2h,f,c
  6625  0005B2  50DF               	movf	indf2,w,c
  6626  0005B4  0100               	movlb	0	; () banked
  6627  0005B6  6FB8               	movwf	i2c_int_handler@error_buf& (0+255),b
  6628                           
  6629                           ;my_i2c.c: 261: error_buf[1] = ic_ptr->error_code;
  6630  0005B8  0100               	movlb	0	; () banked
  6631  0005BA  EE20 F00D          	lfsr	2,13
  6632  0005BE  0100               	movlb	0	; () banked
  6633  0005C0  51CF               	movf	_ic_ptr& (0+255),w,b
  6634  0005C2  26D9               	addwf	fsr2l,f,c
  6635  0005C4  0100               	movlb	0	; () banked
  6636  0005C6  51D0               	movf	(_ic_ptr+1)& (0+255),w,b
  6637  0005C8  22DA               	addwfc	fsr2h,f,c
  6638  0005CA  50DF               	movf	indf2,w,c
  6639  0005CC  0100               	movlb	0	; () banked
  6640  0005CE  6FB9               	movwf	(i2c_int_handler@error_buf+1)& (0+255),b
  6641                           
  6642                           ;my_i2c.c: 262: error_buf[2] = ic_ptr->event_count;
  6643  0005D0  0100               	movlb	0	; () banked
  6644  0005D2  EE20 F00B          	lfsr	2,11
  6645  0005D6  0100               	movlb	0	; () banked
  6646  0005D8  51CF               	movf	_ic_ptr& (0+255),w,b
  6647  0005DA  26D9               	addwf	fsr2l,f,c
  6648  0005DC  0100               	movlb	0	; () banked
  6649  0005DE  51D0               	movf	(_ic_ptr+1)& (0+255),w,b
  6650  0005E0  22DA               	addwfc	fsr2h,f,c
  6651  0005E2  50DF               	movf	indf2,w,c
  6652  0005E4  0100               	movlb	0	; () banked
  6653  0005E6  6FBA               	movwf	(i2c_int_handler@error_buf+2)& (0+255),b
  6654                           
  6655                           ; BSR set to: 0
  6656                           ;my_i2c.c: 263: ToMainHigh_sendmsg(sizeof (unsigned char) *3, 41, (void *) error_buf);
  6657  0005E8  0E29               	movlw	41
  6658  0005EA  0100               	movlb	0	; () banked
  6659  0005EC  6FB3               	movwf	ToMainHigh_sendmsg@msgtype& (0+255),b
  6660  0005EE  0100               	movlb	0	; () banked
  6661  0005F0  0E00               	movlw	high i2c_int_handler@error_buf
  6662  0005F2  0100               	movlb	0	; () banked
  6663  0005F4  6FB5               	movwf	(ToMainHigh_sendmsg@data+1)& (0+255),b
  6664  0005F6  0100               	movlb	0	; () banked
  6665  0005F8  0EB8               	movlw	low i2c_int_handler@error_buf
  6666  0005FA  0100               	movlb	0	; () banked
  6667  0005FC  6FB4               	movwf	ToMainHigh_sendmsg@data& (0+255),b
  6668  0005FE  0E03               	movlw	3
  6669  000600  EC58  F00B         	call	_ToMainHigh_sendmsg
  6670                           
  6671                           ;my_i2c.c: 264: ic_ptr->error_count = 0;
  6672  000604  0100               	movlb	0	; () banked
  6673  000606  EE20 F00E          	lfsr	2,14
  6674  00060A                     L6:
  6675  00060A  0100               	movlb	0	; () banked
  6676  00060C  51CF               	movf	_ic_ptr& (0+255),w,b
  6677  00060E  26D9               	addwf	fsr2l,f,c
  6678  000610  0100               	movlb	0	; () banked
  6679  000612  51D0               	movf	(_ic_ptr+1)& (0+255),w,b
  6680  000614  22DA               	addwfc	fsr2h,f,c
  6681  000616  0E00               	movlw	0
  6682  000618  6EDF               	movwf	indf2,c
  6683  00061A                     i2l3168:
  6684                           
  6685                           ; BSR set to: 0
  6686                           ;my_i2c.c: 265: }
  6687                           ;my_i2c.c: 266: if (msg_to_send) {
  6688  00061A  0100               	movlb	0	; () banked
  6689  00061C  51BE               	movf	i2c_int_handler@msg_to_send& (0+255),w,b
  6690  00061E  B4D8               	btfsc	status,2,c
  6691  000620  D00F               	goto	i2l3174
  6692                           
  6693                           ; BSR set to: 0
  6694                           ;my_i2c.c: 268: ToMainHigh_sendmsg(0, 42, (void *) ic_ptr->buffer);
  6695  000622  0E2A               	movlw	42
  6696  000624  0100               	movlb	0	; () banked
  6697  000626  6FB3               	movwf	ToMainHigh_sendmsg@msgtype& (0+255),b
  6698  000628  0100               	movlb	0	; () banked
  6699  00062A  C0D0  F0B5         	movff	_ic_ptr+1,ToMainHigh_sendmsg@data+1
  6700  00062E  0100               	movlb	0	; () banked
  6701  000630  C0CF  F0B4         	movff	_ic_ptr,ToMainHigh_sendmsg@data
  6702  000634  0E00               	movlw	0
  6703  000636  EC58  F00B         	call	_ToMainHigh_sendmsg
  6704                           
  6705                           ;my_i2c.c: 269: msg_to_send = 0;
  6706  00063A  0E00               	movlw	0
  6707  00063C  0100               	movlb	0	; () banked
  6708  00063E  6FBE               	movwf	i2c_int_handler@msg_to_send& (0+255),b
  6709  000640                     i2l3174:
  6710                           
  6711                           ; BSR set to: 0
  6712                           ;my_i2c.c: 270: }
  6713                           ;my_i2c.c: 274: LATD = 0x00;
  6714  000640  0E00               	movlw	0
  6715  000642  6E8C               	movwf	3980,c	;volatile
  6716                           
  6717                           ; BSR set to: 0
  6718  000644  0012               	return	
  6719  000646                     __end_of_i2c_int_handler:
  6720                           	opt stack 0
  6721                           pclatu	equ	0xFFB
  6722                           pclath	equ	0xFFA
  6723                           tblptru	equ	0xFF8
  6724                           tblptrh	equ	0xFF7
  6725                           tblptrl	equ	0xFF6
  6726                           tablat	equ	0xFF5
  6727                           prodh	equ	0xFF4
  6728                           prodl	equ	0xFF3
  6729                           intcon	equ	0xFF2
  6730                           postinc0	equ	0xFEE
  6731                           fsr0h	equ	0xFEA
  6732                           fsr0l	equ	0xFE9
  6733                           wreg	equ	0xFE8
  6734                           indf1	equ	0xFE7
  6735                           fsr1h	equ	0xFE2
  6736                           fsr1l	equ	0xFE1
  6737                           bsr	equ	0xFE0
  6738                           indf2	equ	0xFDF
  6739                           postinc2	equ	0xFDE
  6740                           postdec2	equ	0xFDD
  6741                           fsr2h	equ	0xFDA
  6742                           fsr2l	equ	0xFD9
  6743                           status	equ	0xFD8
  6744                           
  6745 ;; *************** function _handle_start *****************
  6746 ;; Defined at:
  6747 ;;		line 71 in file "../src/my_i2c.c"
  6748 ;; Parameters:    Size  Location     Type
  6749 ;;  data_read       1    wreg     unsigned char 
  6750 ;; Auto vars:     Size  Location     Type
  6751 ;;  data_read       1    0[BANK0 ] unsigned char 
  6752 ;; Return value:  Size  Location     Type
  6753 ;;		None               void
  6754 ;; Registers used:
  6755 ;;		wreg, fsr2l, fsr2h, status,2, status,0
  6756 ;; Tracked objects:
  6757 ;;		On entry : 0/0
  6758 ;;		On exit  : 0/0
  6759 ;;		Unchanged: 0/0
  6760 ;; Data sizes:     COMRAM   BANK0   BANK1   BANK2   BANK3   BANK4   BANK5   BANK6   BANK7   BANK8   BANK9  BANK10  BANK1
      +1  BANK12  BANK13  BANK14
  6761 ;;      Params:         0       0       0       0       0       0       0       0       0       0       0       0       
      +0       0       0       0
  6762 ;;      Locals:         0       1       0       0       0       0       0       0       0       0       0       0       
      +0       0       0       0
  6763 ;;      Temps:          0       0       0       0       0       0       0       0       0       0       0       0       
      +0       0       0       0
  6764 ;;      Totals:         0       1       0       0       0       0       0       0       0       0       0       0       
      +0       0       0       0
  6765 ;;Total ram usage:        1 bytes
  6766 ;; Hardware stack levels used:    1
  6767 ;; This function calls:
  6768 ;;		Nothing
  6769 ;; This function is called by:
  6770 ;;		_i2c_int_handler
  6771 ;; This function uses a non-reentrant model
  6772 ;;
  6773                           
  6774                           	psect	text41
  6775  000E00                     __ptext41:
  6776                           	opt stack 0
  6777  000E00                     _handle_start:
  6778                           	opt stack 19
  6779                           
  6780                           ; BSR set to: 0
  6781                           ;incstack = 0
  6782                           ;handle_start@data_read stored from wreg
  6783  000E00  0100               	movlb	0	; () banked
  6784  000E02  6F9D               	movwf	handle_start@data_read& (0+255),b
  6785                           
  6786                           ; BSR set to: 0
  6787                           ;my_i2c.c: 72: ic_ptr->event_count = 1;
  6788  000E04  0100               	movlb	0	; () banked
  6789  000E06  EE20 F00B          	lfsr	2,11
  6790  000E0A  0100               	movlb	0	; () banked
  6791  000E0C  51CF               	movf	_ic_ptr& (0+255),w,b
  6792  000E0E  26D9               	addwf	fsr2l,f,c
  6793  000E10  0100               	movlb	0	; () banked
  6794  000E12  51D0               	movf	(_ic_ptr+1)& (0+255),w,b
  6795  000E14  22DA               	addwfc	fsr2h,f,c
  6796  000E16  0E01               	movlw	1
  6797  000E18  6EDF               	movwf	indf2,c
  6798                           
  6799                           ;my_i2c.c: 73: ic_ptr->buflen = 0;
  6800  000E1A  0100               	movlb	0	; () banked
  6801  000E1C  EE20 F00A          	lfsr	2,10
  6802  000E20  0100               	movlb	0	; () banked
  6803  000E22  51CF               	movf	_ic_ptr& (0+255),w,b
  6804  000E24  26D9               	addwf	fsr2l,f,c
  6805  000E26  0100               	movlb	0	; () banked
  6806  000E28  51D0               	movf	(_ic_ptr+1)& (0+255),w,b
  6807  000E2A  22DA               	addwfc	fsr2h,f,c
  6808  000E2C  0E00               	movlw	0
  6809  000E2E  6EDF               	movwf	indf2,c
  6810                           
  6811                           ; BSR set to: 0
  6812                           ;my_i2c.c: 75: if (data_read) {
  6813  000E30  0100               	movlb	0	; () banked
  6814  000E32  519D               	movf	handle_start@data_read& (0+255),w,b
  6815  000E34  B4D8               	btfsc	status,2,c
  6816  000E36  D03D               	goto	i2l2996
  6817                           
  6818                           ; BSR set to: 0
  6819                           ;my_i2c.c: 76: if (SSPSTATbits.D_A == 1) {
  6820  000E38  AAC7               	btfss	4039,5,c	;volatile
  6821  000E3A  D021               	goto	i2l289
  6822                           
  6823                           ; BSR set to: 0
  6824                           ;my_i2c.c: 79: ic_ptr->status = 0x5;
  6825  000E3C  0100               	movlb	0	; () banked
  6826  000E3E  EE20 F00C          	lfsr	2,12
  6827  000E42  0100               	movlb	0	; () banked
  6828  000E44  51CF               	movf	_ic_ptr& (0+255),w,b
  6829  000E46  26D9               	addwf	fsr2l,f,c
  6830  000E48  0100               	movlb	0	; () banked
  6831  000E4A  51D0               	movf	(_ic_ptr+1)& (0+255),w,b
  6832  000E4C  22DA               	addwfc	fsr2h,f,c
  6833  000E4E  0E05               	movlw	5
  6834  000E50  6EDF               	movwf	indf2,c
  6835                           
  6836                           ;my_i2c.c: 80: ic_ptr->error_count++;
  6837  000E52  0100               	movlb	0	; () banked
  6838  000E54  EE20 F00E          	lfsr	2,14
  6839  000E58  0100               	movlb	0	; () banked
  6840  000E5A  51CF               	movf	_ic_ptr& (0+255),w,b
  6841  000E5C  26D9               	addwf	fsr2l,f,c
  6842  000E5E  0100               	movlb	0	; () banked
  6843  000E60  51D0               	movf	(_ic_ptr+1)& (0+255),w,b
  6844  000E62  22DA               	addwfc	fsr2h,f,c
  6845  000E64  2ADF               	incf	indf2,f,c
  6846                           
  6847                           ;my_i2c.c: 81: ic_ptr->error_code = 0x5;
  6848  000E66  0100               	movlb	0	; () banked
  6849  000E68  EE20 F00D          	lfsr	2,13
  6850  000E6C  0100               	movlb	0	; () banked
  6851  000E6E  51CF               	movf	_ic_ptr& (0+255),w,b
  6852  000E70  26D9               	addwf	fsr2l,f,c
  6853  000E72  0100               	movlb	0	; () banked
  6854  000E74  51D0               	movf	(_ic_ptr+1)& (0+255),w,b
  6855  000E76  22DA               	addwfc	fsr2h,f,c
  6856  000E78  0E05               	movlw	5
  6857  000E7A  6EDF               	movwf	indf2,c
  6858                           
  6859                           ;my_i2c.c: 82: } else {
  6860  000E7C  0012               	return	
  6861  000E7E                     i2l289:
  6862                           
  6863                           ; BSR set to: 0
  6864                           ;my_i2c.c: 83: if (SSPSTATbits.R_W == 1) {
  6865  000E7E  A4C7               	btfss	4039,2,c	;volatile
  6866  000E80  D00C               	goto	i2l2994
  6867                           
  6868                           ; BSR set to: 0
  6869                           ;my_i2c.c: 84: ic_ptr->status = 0x8;
  6870  000E82  0100               	movlb	0	; () banked
  6871  000E84  EE20 F00C          	lfsr	2,12
  6872  000E88  0100               	movlb	0	; () banked
  6873  000E8A  51CF               	movf	_ic_ptr& (0+255),w,b
  6874  000E8C  26D9               	addwf	fsr2l,f,c
  6875  000E8E  0100               	movlb	0	; () banked
  6876  000E90  51D0               	movf	(_ic_ptr+1)& (0+255),w,b
  6877  000E92  22DA               	addwfc	fsr2h,f,c
  6878  000E94  0E08               	movlw	8
  6879  000E96  6EDF               	movwf	indf2,c
  6880                           
  6881                           ;my_i2c.c: 85: } else {
  6882  000E98  0012               	return	
  6883  000E9A                     i2l2994:
  6884                           
  6885                           ; BSR set to: 0
  6886                           ;my_i2c.c: 86: ic_ptr->status = 0x7;
  6887  000E9A  0100               	movlb	0	; () banked
  6888  000E9C  EE20 F00C          	lfsr	2,12
  6889  000EA0  0100               	movlb	0	; () banked
  6890  000EA2  51CF               	movf	_ic_ptr& (0+255),w,b
  6891  000EA4  26D9               	addwf	fsr2l,f,c
  6892  000EA6  0100               	movlb	0	; () banked
  6893  000EA8  51D0               	movf	(_ic_ptr+1)& (0+255),w,b
  6894  000EAA  22DA               	addwfc	fsr2h,f,c
  6895  000EAC  0E07               	movlw	7
  6896  000EAE  6EDF               	movwf	indf2,c
  6897  000EB0  0012               	return	
  6898  000EB2                     i2l2996:
  6899                           
  6900                           ; BSR set to: 0
  6901                           ;my_i2c.c: 90: ic_ptr->status = 0x6;
  6902  000EB2  0100               	movlb	0	; () banked
  6903  000EB4  EE20 F00C          	lfsr	2,12
  6904  000EB8  0100               	movlb	0	; () banked
  6905  000EBA  51CF               	movf	_ic_ptr& (0+255),w,b
  6906  000EBC  26D9               	addwf	fsr2l,f,c
  6907  000EBE  0100               	movlb	0	; () banked
  6908  000EC0  51D0               	movf	(_ic_ptr+1)& (0+255),w,b
  6909  000EC2  22DA               	addwfc	fsr2h,f,c
  6910  000EC4  0E06               	movlw	6
  6911  000EC6  6EDF               	movwf	indf2,c
  6912  000EC8  0012               	return	
  6913  000ECA                     __end_of_handle_start:
  6914                           	opt stack 0
  6915                           pclatu	equ	0xFFB
  6916                           pclath	equ	0xFFA
  6917                           tblptru	equ	0xFF8
  6918                           tblptrh	equ	0xFF7
  6919                           tblptrl	equ	0xFF6
  6920                           tablat	equ	0xFF5
  6921                           prodh	equ	0xFF4
  6922                           prodl	equ	0xFF3
  6923                           intcon	equ	0xFF2
  6924                           postinc0	equ	0xFEE
  6925                           fsr0h	equ	0xFEA
  6926                           fsr0l	equ	0xFE9
  6927                           wreg	equ	0xFE8
  6928                           indf1	equ	0xFE7
  6929                           fsr1h	equ	0xFE2
  6930                           fsr1l	equ	0xFE1
  6931                           bsr	equ	0xFE0
  6932                           indf2	equ	0xFDF
  6933                           postinc2	equ	0xFDE
  6934                           postdec2	equ	0xFDD
  6935                           fsr2h	equ	0xFDA
  6936                           fsr2l	equ	0xFD9
  6937                           status	equ	0xFD8
  6938                           
  6939 ;; *************** function _ToMainHigh_sendmsg *****************
  6940 ;; Defined at:
  6941 ;;		line 126 in file "../src/messages.c"
  6942 ;; Parameters:    Size  Location     Type
  6943 ;;  length          1    wreg     unsigned char 
  6944 ;;  msgtype         1   22[BANK0 ] unsigned char 
  6945 ;;  data            2   23[BANK0 ] PTR void 
  6946 ;;		 -> NULL(0), timer0_int_handler@val(2), i2c_int_handler@error_buf(3), main@ic(28), 
  6947 ;; Auto vars:     Size  Location     Type
  6948 ;;  length          1   25[BANK0 ] unsigned char 
  6949 ;; Return value:  Size  Location     Type
  6950 ;;                  1    wreg      char 
  6951 ;; Registers used:
  6952 ;;		wreg, fsr1l, fsr1h, fsr2l, fsr2h, status,2, status,0, prodl, prodh, cstack
  6953 ;; Tracked objects:
  6954 ;;		On entry : 0/0
  6955 ;;		On exit  : 0/0
  6956 ;;		Unchanged: 0/0
  6957 ;; Data sizes:     COMRAM   BANK0   BANK1   BANK2   BANK3   BANK4   BANK5   BANK6   BANK7   BANK8   BANK9  BANK10  BANK1
      +1  BANK12  BANK13  BANK14
  6958 ;;      Params:         0       3       0       0       0       0       0       0       0       0       0       0       
      +0       0       0       0
  6959 ;;      Locals:         0       1       0       0       0       0       0       0       0       0       0       0       
      +0       0       0       0
  6960 ;;      Temps:          0       0       0       0       0       0       0       0       0       0       0       0       
      +0       0       0       0
  6961 ;;      Totals:         0       4       0       0       0       0       0       0       0       0       0       0       
      +0       0       0       0
  6962 ;;Total ram usage:        4 bytes
  6963 ;; Hardware stack levels used:    1
  6964 ;; Hardware stack levels required when called:    2
  6965 ;; This function calls:
  6966 ;;		i2_send_msg
  6967 ;; This function is called by:
  6968 ;;		_i2c_int_handler
  6969 ;;		_timer0_int_handler
  6970 ;; This function uses a non-reentrant model
  6971 ;;
  6972                           
  6973                           	psect	text42
  6974  0016B0                     __ptext42:
  6975                           	opt stack 0
  6976  0016B0                     _ToMainHigh_sendmsg:
  6977                           	opt stack 17
  6978                           
  6979                           ; BSR set to: 0
  6980                           ;incstack = 0
  6981                           ;ToMainHigh_sendmsg@length stored from wreg
  6982  0016B0  0100               	movlb	0	; () banked
  6983  0016B2  6FB6               	movwf	ToMainHigh_sendmsg@length& (0+255),b
  6984                           
  6985                           ; BSR set to: 0
  6986                           ;messages.c: 132: return (send_msg(&ToMainHigh_MQ, length, msgtype, data));
  6987                           ;	Return value of _ToMainHigh_sendmsg is never used
  6988  0016B4  0101               	movlb	1	; () banked
  6989  0016B6  0E01               	movlw	high _ToMainHigh_MQ
  6990  0016B8  0100               	movlb	0	; () banked
  6991  0016BA  6FA8               	movwf	(i2send_msg@qptr+1)& (0+255),b
  6992  0016BC  0101               	movlb	1	; () banked
  6993  0016BE  0E6C               	movlw	low _ToMainHigh_MQ
  6994  0016C0  0100               	movlb	0	; () banked
  6995  0016C2  6FA7               	movwf	i2send_msg@qptr& (0+255),b
  6996  0016C4  C0B6  F0A9         	movff	ToMainHigh_sendmsg@length,i2send_msg@length
  6997  0016C8  C0B3  F0AA         	movff	ToMainHigh_sendmsg@msgtype,i2send_msg@msgtype
  6998  0016CC  0100               	movlb	0	; () banked
  6999  0016CE  C0B5  F0AC         	movff	ToMainHigh_sendmsg@data+1,i2send_msg@data+1
  7000  0016D2  0100               	movlb	0	; () banked
  7001  0016D4  C0B4  F0AB         	movff	ToMainHigh_sendmsg@data,i2send_msg@data
  7002  0016D8  EC8A  F006         	call	i2_send_msg	;wreg free
  7003  0016DC  0012               	return	
  7004  0016DE                     __end_of_ToMainHigh_sendmsg:
  7005                           	opt stack 0
  7006                           pclatu	equ	0xFFB
  7007                           pclath	equ	0xFFA
  7008                           tblptru	equ	0xFF8
  7009                           tblptrh	equ	0xFF7
  7010                           tblptrl	equ	0xFF6
  7011                           tablat	equ	0xFF5
  7012                           prodh	equ	0xFF4
  7013                           prodl	equ	0xFF3
  7014                           intcon	equ	0xFF2
  7015                           postinc0	equ	0xFEE
  7016                           fsr0h	equ	0xFEA
  7017                           fsr0l	equ	0xFE9
  7018                           wreg	equ	0xFE8
  7019                           indf1	equ	0xFE7
  7020                           fsr1h	equ	0xFE2
  7021                           fsr1l	equ	0xFE1
  7022                           bsr	equ	0xFE0
  7023                           indf2	equ	0xFDF
  7024                           postinc2	equ	0xFDE
  7025                           postdec2	equ	0xFDD
  7026                           fsr2h	equ	0xFDA
  7027                           fsr2l	equ	0xFD9
  7028                           status	equ	0xFD8
  7029                           
  7030 ;; *************** function i2_send_msg *****************
  7031 ;; Defined at:
  7032 ;;		line 24 in file "../src/messages.c"
  7033 ;; Parameters:    Size  Location     Type
  7034 ;;  qptr            2   10[BANK0 ] PTR struct __msg_queue
  7035 ;;		 -> FromMainHigh_MQ(54), FromMainLow_MQ(54), ToMainHigh_MQ(54), ToMainLow_MQ(54), 
  7036 ;;  length          1   12[BANK0 ] unsigned char 
  7037 ;;  msgtype         1   13[BANK0 ] unsigned char 
  7038 ;;  data            2   14[BANK0 ] PTR void 
  7039 ;;		 -> NULL(0), timer0_int_handler@val(2), i2c_int_handler@error_buf(3), main@t1thread_data(2), 
  7040 ;;		 -> main@ic(28), 
  7041 ;; Auto vars:     Size  Location     Type
  7042 ;;  send_msg        2   20[BANK0 ] PTR struct __msg
  7043 ;;		 -> FromMainLow_MQ.queue(52), FromMainHigh_MQ.queue(52), ToMainHigh_MQ.queue(52), ToMainLow_MQ.queue(52), 
  7044 ;;		 -> FromMainHigh_MQ(54), FromMainLow_MQ(54), ToMainHigh_MQ(54), ToMainLow_MQ(54), 
  7045 ;;  send_msg        2   17[BANK0 ] unsigned int 
  7046 ;;  send_msg        1   19[BANK0 ] unsigned char 
  7047 ;; Return value:  Size  Location     Type
  7048 ;;                  1    wreg      char 
  7049 ;; Registers used:
  7050 ;;		wreg, fsr1l, fsr1h, fsr2l, fsr2h, status,2, status,0, prodl, prodh, cstack
  7051 ;; Tracked objects:
  7052 ;;		On entry : 0/0
  7053 ;;		On exit  : 0/0
  7054 ;;		Unchanged: 0/0
  7055 ;; Data sizes:     COMRAM   BANK0   BANK1   BANK2   BANK3   BANK4   BANK5   BANK6   BANK7   BANK8   BANK9  BANK10  BANK1
      +1  BANK12  BANK13  BANK14
  7056 ;;      Params:         0       6       0       0       0       0       0       0       0       0       0       0       
      +0       0       0       0
  7057 ;;      Locals:         0       5       0       0       0       0       0       0       0       0       0       0       
      +0       0       0       0
  7058 ;;      Temps:          0       1       0       0       0       0       0       0       0       0       0       0       
      +0       0       0       0
  7059 ;;      Totals:         0      12       0       0       0       0       0       0       0       0       0       0       
      +0       0       0       0
  7060 ;;Total ram usage:       12 bytes
  7061 ;; Hardware stack levels used:    1
  7062 ;; Hardware stack levels required when called:    1
  7063 ;; This function calls:
  7064 ;;		i2_memcpy
  7065 ;; This function is called by:
  7066 ;;		_ToMainHigh_sendmsg
  7067 ;; This function uses a non-reentrant model
  7068 ;;
  7069                           
  7070                           	psect	text43
  7071  000D14                     __ptext43:
  7072                           	opt stack 0
  7073  000D14                     i2_send_msg:
  7074                           	opt stack 17
  7075                           
  7076                           ;messages.c: 25: unsigned char slot;
  7077                           ;messages.c: 27: msg *qmsg;
  7078                           ;messages.c: 28: size_t tlength = length;
  7079                           
  7080                           ;incstack = 0
  7081  000D14  0100               	movlb	0	; () banked
  7082  000D16  C0A9  F0AE         	movff	i2send_msg@length,i2send_msg@tlength
  7083  000D1A  0100               	movlb	0	; () banked
  7084  000D1C  6BAF               	clrf	(i2send_msg@tlength+1)& (0+255),b
  7085                           
  7086                           ; BSR set to: 0
  7087                           ;messages.c: 38: slot = qptr->cur_write_ind;
  7088  000D1E  0100               	movlb	0	; () banked
  7089  000D20  EE20 F034          	lfsr	2,52
  7090  000D24  0100               	movlb	0	; () banked
  7091  000D26  51A7               	movf	i2send_msg@qptr& (0+255),w,b
  7092  000D28  26D9               	addwf	fsr2l,f,c
  7093  000D2A  0100               	movlb	0	; () banked
  7094  000D2C  51A8               	movf	(i2send_msg@qptr+1)& (0+255),w,b
  7095  000D2E  22DA               	addwfc	fsr2h,f,c
  7096  000D30  50DF               	movf	indf2,w,c
  7097  000D32  0100               	movlb	0	; () banked
  7098  000D34  6FB0               	movwf	i2send_msg@slot& (0+255),b
  7099                           
  7100                           ; BSR set to: 0
  7101                           ;messages.c: 39: qmsg = &(qptr->queue[slot]);
  7102  000D36  0100               	movlb	0	; () banked
  7103  000D38  51B0               	movf	i2send_msg@slot& (0+255),w,b
  7104  000D3A  0D0D               	mullw	13
  7105  000D3C  50F3               	movf	prodl,w,c
  7106  000D3E  0100               	movlb	0	; () banked
  7107  000D40  25A7               	addwf	i2send_msg@qptr& (0+255),w,b
  7108  000D42  0100               	movlb	0	; () banked
  7109  000D44  6FB1               	movwf	i2send_msg@qmsg& (0+255),b
  7110  000D46  50F4               	movf	prodh,w,c
  7111  000D48  0100               	movlb	0	; () banked
  7112  000D4A  21A8               	addwfc	(i2send_msg@qptr+1)& (0+255),w,b
  7113  000D4C  0100               	movlb	0	; () banked
  7114  000D4E  6FB2               	movwf	(i2send_msg@qmsg+1)& (0+255),b
  7115                           
  7116                           ; BSR set to: 0
  7117                           ;messages.c: 41: if (qmsg->full != 0) {
  7118  000D50  C0B1  FFD9         	movff	i2send_msg@qmsg,fsr2l
  7119  000D54  C0B2  FFDA         	movff	i2send_msg@qmsg+1,fsr2h
  7120  000D58  50DF               	movf	indf2,w,c
  7121  000D5A  B4D8               	btfsc	status,2,c
  7122  000D5C  D002               	goto	i2l2856
  7123                           
  7124                           ; BSR set to: 0
  7125                           ;messages.c: 42: return (-1);
  7126  000D5E  0EFF               	movlw	255
  7127  000D60  0012               	return	
  7128  000D62                     i2l2856:
  7129                           
  7130                           ; BSR set to: 0
  7131                           ;messages.c: 43: }
  7132                           ;messages.c: 46: qmsg->length = length;
  7133  000D62  0100               	movlb	0	; () banked
  7134  000D64  EE20 F001          	lfsr	2,1
  7135  000D68  0100               	movlb	0	; () banked
  7136  000D6A  51B1               	movf	i2send_msg@qmsg& (0+255),w,b
  7137  000D6C  26D9               	addwf	fsr2l,f,c
  7138  000D6E  0100               	movlb	0	; () banked
  7139  000D70  51B2               	movf	(i2send_msg@qmsg+1)& (0+255),w,b
  7140  000D72  22DA               	addwfc	fsr2h,f,c
  7141  000D74  0100               	movlb	0	; () banked
  7142  000D76  C0A9  FFDF         	movff	i2send_msg@length,indf2
  7143                           
  7144                           ;messages.c: 47: qmsg->msgtype = msgtype;
  7145  000D7A  0100               	movlb	0	; () banked
  7146  000D7C  EE20 F002          	lfsr	2,2
  7147  000D80  0100               	movlb	0	; () banked
  7148  000D82  51B1               	movf	i2send_msg@qmsg& (0+255),w,b
  7149  000D84  26D9               	addwf	fsr2l,f,c
  7150  000D86  0100               	movlb	0	; () banked
  7151  000D88  51B2               	movf	(i2send_msg@qmsg+1)& (0+255),w,b
  7152  000D8A  22DA               	addwfc	fsr2h,f,c
  7153  000D8C  0100               	movlb	0	; () banked
  7154  000D8E  C0AA  FFDF         	movff	i2send_msg@msgtype,indf2
  7155                           
  7156                           ; BSR set to: 0
  7157                           ;messages.c: 55: memcpy(qmsg->data, data, tlength);
  7158  000D92  0E03               	movlw	3
  7159  000D94  0100               	movlb	0	; () banked
  7160  000D96  25B1               	addwf	i2send_msg@qmsg& (0+255),w,b
  7161  000D98  0100               	movlb	0	; () banked
  7162  000D9A  6F9D               	movwf	i2memcpy@d1& (0+255),b
  7163  000D9C  0E00               	movlw	0
  7164  000D9E  0100               	movlb	0	; () banked
  7165  000DA0  21B2               	addwfc	(i2send_msg@qmsg+1)& (0+255),w,b
  7166  000DA2  0100               	movlb	0	; () banked
  7167  000DA4  6F9E               	movwf	(i2memcpy@d1+1)& (0+255),b
  7168  000DA6  0100               	movlb	0	; () banked
  7169  000DA8  C0AC  F0A0         	movff	i2send_msg@data+1,i2memcpy@s1+1
  7170  000DAC  0100               	movlb	0	; () banked
  7171  000DAE  C0AB  F09F         	movff	i2send_msg@data,i2memcpy@s1
  7172  000DB2  C0AE  F0A1         	movff	i2send_msg@tlength,i2memcpy@n
  7173  000DB6  C0AF  F0A2         	movff	i2send_msg@tlength+1,i2memcpy@n+1
  7174  000DBA  ECB2  F009         	call	i2_memcpy	;wreg free
  7175                           
  7176                           ;messages.c: 56: qptr->cur_write_ind = (qptr->cur_write_ind + 1) % 4;
  7177  000DBE  0100               	movlb	0	; () banked
  7178  000DC0  EE20 F034          	lfsr	2,52
  7179  000DC4  0100               	movlb	0	; () banked
  7180  000DC6  51A7               	movf	i2send_msg@qptr& (0+255),w,b
  7181  000DC8  26D9               	addwf	fsr2l,f,c
  7182  000DCA  0100               	movlb	0	; () banked
  7183  000DCC  51A8               	movf	(i2send_msg@qptr+1)& (0+255),w,b
  7184  000DCE  22DA               	addwfc	fsr2h,f,c
  7185  000DD0  0100               	movlb	0	; () banked
  7186  000DD2  EE10 F034          	lfsr	1,52
  7187  000DD6  0100               	movlb	0	; () banked
  7188  000DD8  51A7               	movf	i2send_msg@qptr& (0+255),w,b
  7189  000DDA  26E1               	addwf	fsr1l,f,c
  7190  000DDC  0100               	movlb	0	; () banked
  7191  000DDE  51A8               	movf	(i2send_msg@qptr+1)& (0+255),w,b
  7192  000DE0  22E2               	addwfc	fsr1h,f,c
  7193  000DE2  50E7               	movf	indf1,w,c
  7194  000DE4  0100               	movlb	0	; () banked
  7195  000DE6  6FAD               	movwf	??i2_send_msg& (0+255),b
  7196  000DE8  0100               	movlb	0	; () banked
  7197  000DEA  29AD               	incf	??i2_send_msg& (0+255),w,b
  7198  000DEC  0B03               	andlw	3
  7199  000DEE  6EDF               	movwf	indf2,c
  7200                           
  7201                           ; BSR set to: 0
  7202                           ;messages.c: 59: qmsg->full = 1;
  7203  000DF0  C0B1  FFD9         	movff	i2send_msg@qmsg,fsr2l
  7204  000DF4  C0B2  FFDA         	movff	i2send_msg@qmsg+1,fsr2h
  7205  000DF8  0E01               	movlw	1
  7206  000DFA  6EDF               	movwf	indf2,c
  7207                           
  7208                           ; BSR set to: 0
  7209                           ;messages.c: 60: return (1);
  7210  000DFC  0E01               	movlw	1
  7211  000DFE  0012               	return	
  7212  000E00                     __end_ofi2_send_msg:
  7213                           	opt stack 0
  7214                           pclatu	equ	0xFFB
  7215                           pclath	equ	0xFFA
  7216                           tblptru	equ	0xFF8
  7217                           tblptrh	equ	0xFF7
  7218                           tblptrl	equ	0xFF6
  7219                           tablat	equ	0xFF5
  7220                           prodh	equ	0xFF4
  7221                           prodl	equ	0xFF3
  7222                           intcon	equ	0xFF2
  7223                           postinc0	equ	0xFEE
  7224                           fsr0h	equ	0xFEA
  7225                           fsr0l	equ	0xFE9
  7226                           wreg	equ	0xFE8
  7227                           indf1	equ	0xFE7
  7228                           fsr1h	equ	0xFE2
  7229                           fsr1l	equ	0xFE1
  7230                           bsr	equ	0xFE0
  7231                           indf2	equ	0xFDF
  7232                           postinc2	equ	0xFDE
  7233                           postdec2	equ	0xFDD
  7234                           fsr2h	equ	0xFDA
  7235                           fsr2l	equ	0xFD9
  7236                           status	equ	0xFD8
  7237                           
  7238 ;; *************** function i2_memcpy *****************
  7239 ;; Defined at:
  7240 ;;		line 11 in file "C:\Program Files (x86)\Microchip\xc8\v1.32\sources\common\memcpy.c"
  7241 ;; Parameters:    Size  Location     Type
  7242 ;;  d1              2    0[BANK0 ] PTR void 
  7243 ;;		 -> FromMainLow_MQ.queue(52), FromMainHigh_MQ.queue(52), ToMainHigh_MQ.queue(52), ToMainLow_MQ.queue(52), 
  7244 ;;		 -> timer0_int_handler@val(2), FromMainHigh_MQ(54), FromMainLow_MQ(54), ToMainHigh_MQ(54), 
  7245 ;;		 -> ToMainLow_MQ(54), main@msgbuffer(11), 
  7246 ;;  s1              2    2[BANK0 ] PTR const void 
  7247 ;;		 -> ToMainLow_MQ.data(10), ToMainHigh_MQ.data(10), FromMainLow_MQ.data(10), FromMainHigh_MQ.data(10), 
  7248 ;;		 -> ToMainLow_MQ.queue.data(10), ToMainHigh_MQ.queue.data(10), FromMainHigh_MQ.queue.data(10), FromMainLow_MQ.queue.
      +data(10), 
  7249 ;;		 -> NULL(0), timer0_int_handler@val(2), i2c_int_handler@error_buf(3), FromMainHigh_MQ(54), 
  7250 ;;		 -> FromMainLow_MQ(54), ToMainHigh_MQ(54), ToMainLow_MQ(54), main@t1thread_data(2), 
  7251 ;;		 -> main@ic(28), 
  7252 ;;  n               2    4[BANK0 ] unsigned int 
  7253 ;; Auto vars:     Size  Location     Type
  7254 ;;  memcpy          2    8[BANK0 ] PTR const unsigned char 
  7255 ;;		 -> ToMainLow_MQ.data(10), ToMainHigh_MQ.data(10), FromMainLow_MQ.data(10), FromMainHigh_MQ.data(10), 
  7256 ;;		 -> ToMainLow_MQ.queue.data(10), ToMainHigh_MQ.queue.data(10), FromMainHigh_MQ.queue.data(10), FromMainLow_MQ.queue.
      +data(10), 
  7257 ;;		 -> NULL(0), timer0_int_handler@val(2), i2c_int_handler@error_buf(3), FromMainHigh_MQ(54), 
  7258 ;;		 -> FromMainLow_MQ(54), ToMainHigh_MQ(54), ToMainLow_MQ(54), main@t1thread_data(2), 
  7259 ;;		 -> main@ic(28), 
  7260 ;;  memcpy          2    6[BANK0 ] PTR unsigned char 
  7261 ;;		 -> FromMainLow_MQ.queue(52), FromMainHigh_MQ.queue(52), ToMainHigh_MQ.queue(52), ToMainLow_MQ.queue(52), 
  7262 ;;		 -> timer0_int_handler@val(2), FromMainHigh_MQ(54), FromMainLow_MQ(54), ToMainHigh_MQ(54), 
  7263 ;;		 -> ToMainLow_MQ(54), main@msgbuffer(11), 
  7264 ;; Return value:  Size  Location     Type
  7265 ;;                  2    0[BANK0 ] PTR void 
  7266 ;; Registers used:
  7267 ;;		wreg, fsr1l, fsr1h, fsr2l, fsr2h, status,2, status,0
  7268 ;; Tracked objects:
  7269 ;;		On entry : 0/0
  7270 ;;		On exit  : 0/0
  7271 ;;		Unchanged: 0/0
  7272 ;; Data sizes:     COMRAM   BANK0   BANK1   BANK2   BANK3   BANK4   BANK5   BANK6   BANK7   BANK8   BANK9  BANK10  BANK1
      +1  BANK12  BANK13  BANK14
  7273 ;;      Params:         0       6       0       0       0       0       0       0       0       0       0       0       
      +0       0       0       0
  7274 ;;      Locals:         0       4       0       0       0       0       0       0       0       0       0       0       
      +0       0       0       0
  7275 ;;      Temps:          0       0       0       0       0       0       0       0       0       0       0       0       
      +0       0       0       0
  7276 ;;      Totals:         0      10       0       0       0       0       0       0       0       0       0       0       
      +0       0       0       0
  7277 ;;Total ram usage:       10 bytes
  7278 ;; Hardware stack levels used:    1
  7279 ;; This function calls:
  7280 ;;		Nothing
  7281 ;; This function is called by:
  7282 ;;		i2_send_msg
  7283 ;;		i2_recv_msg
  7284 ;; This function uses a non-reentrant model
  7285 ;;
  7286                           
  7287                           	psect	text44
  7288  001364                     __ptext44:
  7289                           	opt stack 0
  7290  001364                     i2_memcpy:
  7291                           	opt stack 17
  7292                           
  7293                           ; BSR set to: 0
  7294                           ;incstack = 0
  7295  001364  0100               	movlb	0	; () banked
  7296  001366  C0A0  F0A6         	movff	i2memcpy@s1+1,i2memcpy@s+1
  7297  00136A  0100               	movlb	0	; () banked
  7298  00136C  C09F  F0A5         	movff	i2memcpy@s1,i2memcpy@s
  7299  001370  0100               	movlb	0	; () banked
  7300  001372  C09E  F0A4         	movff	i2memcpy@d1+1,i2memcpy@d+1
  7301  001376  0100               	movlb	0	; () banked
  7302  001378  C09D  F0A3         	movff	i2memcpy@d1,i2memcpy@d
  7303  00137C  D010               	goto	i2l2814
  7304  00137E                     i2l2808:
  7305                           
  7306                           ; BSR set to: 0
  7307  00137E  C0A5  FFD9         	movff	i2memcpy@s,fsr2l
  7308  001382  C0A6  FFDA         	movff	i2memcpy@s+1,fsr2h
  7309  001386  C0A3  FFE1         	movff	i2memcpy@d,fsr1l
  7310  00138A  C0A4  FFE2         	movff	i2memcpy@d+1,fsr1h
  7311  00138E  CFDF FFE7          	movff	indf2,indf1
  7312                           
  7313                           ; BSR set to: 0
  7314  001392  0100               	movlb	0	; () banked
  7315  001394  4BA5               	infsnz	i2memcpy@s& (0+255),f,b
  7316  001396  2BA6               	incf	(i2memcpy@s+1)& (0+255),f,b
  7317                           
  7318                           ; BSR set to: 0
  7319  001398  0100               	movlb	0	; () banked
  7320  00139A  4BA3               	infsnz	i2memcpy@d& (0+255),f,b
  7321  00139C  2BA4               	incf	(i2memcpy@d+1)& (0+255),f,b
  7322  00139E                     i2l2814:
  7323                           
  7324                           ; BSR set to: 0
  7325  00139E  0100               	movlb	0	; () banked
  7326  0013A0  07A1               	decf	i2memcpy@n& (0+255),f,b
  7327  0013A2  A0D8               	btfss	status,0,c
  7328  0013A4  07A2               	decf	(i2memcpy@n+1)& (0+255),f,b
  7329  0013A6  0100               	movlb	0	; () banked
  7330  0013A8  29A1               	incf	i2memcpy@n& (0+255),w,b
  7331  0013AA  B4D8               	btfsc	status,2,c
  7332  0013AC  29A2               	incf	(i2memcpy@n+1)& (0+255),w,b
  7333  0013AE  B4D8               	btfsc	status,2,c
  7334                           
  7335                           ; BSR set to: 0
  7336                           
  7337                           ; BSR set to: 0
  7338                           ;	Return value of i2_memcpy is never used
  7339  0013B0  0012               	return	
  7340  0013B2  D7E5               	goto	i2l2808
  7341  0013B4                     __end_ofi2_memcpy:
  7342                           	opt stack 0
  7343                           pclatu	equ	0xFFB
  7344                           pclath	equ	0xFFA
  7345                           tblptru	equ	0xFF8
  7346                           tblptrh	equ	0xFF7
  7347                           tblptrl	equ	0xFF6
  7348                           tablat	equ	0xFF5
  7349                           prodh	equ	0xFF4
  7350                           prodl	equ	0xFF3
  7351                           intcon	equ	0xFF2
  7352                           postinc0	equ	0xFEE
  7353                           fsr0h	equ	0xFEA
  7354                           fsr0l	equ	0xFE9
  7355                           wreg	equ	0xFE8
  7356                           indf1	equ	0xFE7
  7357                           fsr1h	equ	0xFE2
  7358                           fsr1l	equ	0xFE1
  7359                           bsr	equ	0xFE0
  7360                           indf2	equ	0xFDF
  7361                           postinc2	equ	0xFDE
  7362                           postdec2	equ	0xFDD
  7363                           fsr2h	equ	0xFDA
  7364                           fsr2l	equ	0xFD9
  7365                           status	equ	0xFD8
  7366                           
  7367 ;; *************** function _SleepIfOkay *****************
  7368 ;; Defined at:
  7369 ;;		line 226 in file "../src/messages.c"
  7370 ;; Parameters:    Size  Location     Type
  7371 ;;		None
  7372 ;; Auto vars:     Size  Location     Type
  7373 ;;		None
  7374 ;; Return value:  Size  Location     Type
  7375 ;;		None               void
  7376 ;; Registers used:
  7377 ;;		wreg, fsr2l, fsr2h, status,2, status,0, prodl, prodh, cstack
  7378 ;; Tracked objects:
  7379 ;;		On entry : 0/0
  7380 ;;		On exit  : 0/0
  7381 ;;		Unchanged: 0/0
  7382 ;; Data sizes:     COMRAM   BANK0   BANK1   BANK2   BANK3   BANK4   BANK5   BANK6   BANK7   BANK8   BANK9  BANK10  BANK1
      +1  BANK12  BANK13  BANK14
  7383 ;;      Params:         0       0       0       0       0       0       0       0       0       0       0       0       
      +0       0       0       0
  7384 ;;      Locals:         0       0       0       0       0       0       0       0       0       0       0       0       
      +0       0       0       0
  7385 ;;      Temps:          0       0       0       0       0       0       0       0       0       0       0       0       
      +0       0       0       0
  7386 ;;      Totals:         0       0       0       0       0       0       0       0       0       0       0       0       
      +0       0       0       0
  7387 ;;Total ram usage:        0 bytes
  7388 ;; Hardware stack levels used:    1
  7389 ;; Hardware stack levels required when called:    2
  7390 ;; This function calls:
  7391 ;;		_check_msg
  7392 ;;		_enter_sleep_mode
  7393 ;;		_in_high_int
  7394 ;;		_in_low_int
  7395 ;; This function is called by:
  7396 ;;		_InterruptHandlerHigh
  7397 ;; This function uses a non-reentrant model
  7398 ;;
  7399                           
  7400                           	psect	text45
  7401  001260                     __ptext45:
  7402                           	opt stack 0
  7403  001260                     _SleepIfOkay:
  7404                           	opt stack 18
  7405                           
  7406                           ;messages.c: 228: if (MQ_Main_Willing_to_block == 0) {
  7407                           
  7408                           ; BSR set to: 0
  7409                           ;incstack = 0
  7410  001260  662E               	tstfsz	_MQ_Main_Willing_to_block,c
  7411  001262  D001               	goto	i2l3192
  7412  001264  0012               	return	
  7413  001266                     i2l3192:
  7414                           
  7415                           ;messages.c: 230: }
  7416                           ;messages.c: 233: if (in_low_int()) {
  7417  001266  EC1A  F00A         	call	_in_low_int	;wreg free
  7418  00126A  0100               	movlb	0	; () banked
  7419  00126C  51A0               	movf	(?_in_low_int+1)& (0+255),w,b
  7420  00126E  0100               	movlb	0	; () banked
  7421  001270  119F               	iorwf	?_in_low_int& (0+255),w,b
  7422  001272  A4D8               	btfss	status,2,c
  7423  001274  0012               	return	
  7424                           
  7425                           ; BSR set to: 0
  7426                           ;messages.c: 235: }
  7427                           ;messages.c: 238: if (!in_high_int()) {
  7428                           
  7429                           ; BSR set to: 0
  7430                           
  7431                           ; BSR set to: 0
  7432                           ;messages.c: 234: return;
  7433  001276  ECFF  F00B         	call	_in_high_int	;wreg free
  7434  00127A  0100               	movlb	0	; () banked
  7435  00127C  519E               	movf	(?_in_high_int+1)& (0+255),w,b
  7436  00127E  0100               	movlb	0	; () banked
  7437  001280  119D               	iorwf	?_in_high_int& (0+255),w,b
  7438  001282  B4D8               	btfsc	status,2,c
  7439  001284  0012               	return	
  7440                           
  7441                           ; BSR set to: 0
  7442                           ;messages.c: 240: }
  7443                           ;messages.c: 245: if (check_msg(&ToMainHigh_MQ)) {
  7444                           
  7445                           ; BSR set to: 0
  7446                           
  7447                           ; BSR set to: 0
  7448                           ;messages.c: 239: return;
  7449  001286  0101               	movlb	1	; () banked
  7450  001288  0E01               	movlw	high _ToMainHigh_MQ
  7451  00128A  0100               	movlb	0	; () banked
  7452  00128C  6F9E               	movwf	(check_msg@qptr+1)& (0+255),b
  7453  00128E  0101               	movlb	1	; () banked
  7454  001290  0E6C               	movlw	low _ToMainHigh_MQ
  7455  001292  0100               	movlb	0	; () banked
  7456  001294  6F9D               	movwf	check_msg@qptr& (0+255),b
  7457  001296  EC11  F00B         	call	_check_msg	;wreg free
  7458  00129A  0900               	iorlw	0
  7459  00129C  A4D8               	btfss	status,2,c
  7460  00129E  0012               	return	
  7461                           
  7462                           ;messages.c: 247: }
  7463                           ;messages.c: 248: if (check_msg(&ToMainLow_MQ)) {
  7464                           
  7465                           ;messages.c: 246: return;
  7466  0012A0  0100               	movlb	0	; () banked
  7467  0012A2  0E00               	movlw	high _ToMainLow_MQ
  7468  0012A4  0100               	movlb	0	; () banked
  7469  0012A6  6F9E               	movwf	(check_msg@qptr+1)& (0+255),b
  7470  0012A8  0100               	movlb	0	; () banked
  7471  0012AA  0E60               	movlw	low _ToMainLow_MQ
  7472  0012AC  0100               	movlb	0	; () banked
  7473  0012AE  6F9D               	movwf	check_msg@qptr& (0+255),b
  7474  0012B0  EC11  F00B         	call	_check_msg	;wreg free
  7475  0012B4  0900               	iorlw	0
  7476  0012B6  B4D8               	btfsc	status,2,c
  7477                           
  7478                           ;messages.c: 250: }
  7479                           ;messages.c: 251: enter_sleep_mode();
  7480                           
  7481                           ;messages.c: 249: return;
  7482  0012B8  EC16  F00C         	call	_enter_sleep_mode	;wreg free
  7483  0012BC  0012               	return	
  7484  0012BE                     __end_of_SleepIfOkay:
  7485                           	opt stack 0
  7486                           pclatu	equ	0xFFB
  7487                           pclath	equ	0xFFA
  7488                           tblptru	equ	0xFF8
  7489                           tblptrh	equ	0xFF7
  7490                           tblptrl	equ	0xFF6
  7491                           tablat	equ	0xFF5
  7492                           prodh	equ	0xFF4
  7493                           prodl	equ	0xFF3
  7494                           intcon	equ	0xFF2
  7495                           postinc0	equ	0xFEE
  7496                           fsr0h	equ	0xFEA
  7497                           fsr0l	equ	0xFE9
  7498                           wreg	equ	0xFE8
  7499                           indf1	equ	0xFE7
  7500                           fsr1h	equ	0xFE2
  7501                           fsr1l	equ	0xFE1
  7502                           bsr	equ	0xFE0
  7503                           indf2	equ	0xFDF
  7504                           postinc2	equ	0xFDE
  7505                           postdec2	equ	0xFDD
  7506                           fsr2h	equ	0xFDA
  7507                           fsr2l	equ	0xFD9
  7508                           status	equ	0xFD8
  7509                           
  7510 ;; *************** function _in_low_int *****************
  7511 ;; Defined at:
  7512 ;;		line 33 in file "../src/interrupts.c"
  7513 ;; Parameters:    Size  Location     Type
  7514 ;;		None
  7515 ;; Auto vars:     Size  Location     Type
  7516 ;;		None
  7517 ;; Return value:  Size  Location     Type
  7518 ;;                  2    2[BANK0 ] int 
  7519 ;; Registers used:
  7520 ;;		wreg, status,2, status,0, cstack
  7521 ;; Tracked objects:
  7522 ;;		On entry : 0/0
  7523 ;;		On exit  : 0/0
  7524 ;;		Unchanged: 0/0
  7525 ;; Data sizes:     COMRAM   BANK0   BANK1   BANK2   BANK3   BANK4   BANK5   BANK6   BANK7   BANK8   BANK9  BANK10  BANK1
      +1  BANK12  BANK13  BANK14
  7526 ;;      Params:         0       2       0       0       0       0       0       0       0       0       0       0       
      +0       0       0       0
  7527 ;;      Locals:         0       0       0       0       0       0       0       0       0       0       0       0       
      +0       0       0       0
  7528 ;;      Temps:          0       0       0       0       0       0       0       0       0       0       0       0       
      +0       0       0       0
  7529 ;;      Totals:         0       2       0       0       0       0       0       0       0       0       0       0       
      +0       0       0       0
  7530 ;;Total ram usage:        2 bytes
  7531 ;; Hardware stack levels used:    1
  7532 ;; Hardware stack levels required when called:    1
  7533 ;; This function calls:
  7534 ;;		_in_high_int
  7535 ;; This function is called by:
  7536 ;;		_SleepIfOkay
  7537 ;;		_in_main
  7538 ;; This function uses a non-reentrant model
  7539 ;;
  7540                           
  7541                           	psect	text46
  7542  001434                     __ptext46:
  7543                           	opt stack 0
  7544  001434                     _in_low_int:
  7545                           	opt stack 18
  7546                           
  7547                           ;interrupts.c: 34: if (INTCONbits.GIEL == 1) {
  7548                           
  7549                           ;incstack = 0
  7550  001434  ACF2               	btfss	intcon,6,c	;volatile
  7551  001436  D007               	goto	i2l2908
  7552                           
  7553                           ;interrupts.c: 35: return (0);
  7554  001438  0E00               	movlw	0
  7555  00143A  0100               	movlb	0	; () banked
  7556  00143C  6FA0               	movwf	(?_in_low_int+1)& (0+255),b
  7557  00143E  0E00               	movlw	0
  7558  001440  0100               	movlb	0	; () banked
  7559  001442  6F9F               	movwf	?_in_low_int& (0+255),b
  7560  001444  0012               	return	
  7561  001446                     i2l2908:
  7562  001446  ECFF  F00B         	call	_in_high_int	;wreg free
  7563  00144A  0100               	movlb	0	; () banked
  7564  00144C  519E               	movf	(?_in_high_int+1)& (0+255),w,b
  7565  00144E  0100               	movlb	0	; () banked
  7566  001450  119D               	iorwf	?_in_high_int& (0+255),w,b
  7567  001452  B4D8               	btfsc	status,2,c
  7568  001454  D007               	goto	i2l2916
  7569                           
  7570                           ; BSR set to: 0
  7571                           ;interrupts.c: 37: return (0);
  7572  001456  0E00               	movlw	0
  7573  001458  0100               	movlb	0	; () banked
  7574  00145A  6FA0               	movwf	(?_in_low_int+1)& (0+255),b
  7575  00145C  0E00               	movlw	0
  7576  00145E  0100               	movlb	0	; () banked
  7577  001460  6F9F               	movwf	?_in_low_int& (0+255),b
  7578  001462  0012               	return	
  7579  001464                     i2l2916:
  7580                           
  7581                           ; BSR set to: 0
  7582                           ;interrupts.c: 39: return (1);
  7583  001464  0E00               	movlw	0
  7584  001466  0100               	movlb	0	; () banked
  7585  001468  6FA0               	movwf	(?_in_low_int+1)& (0+255),b
  7586  00146A  0E01               	movlw	1
  7587  00146C  0100               	movlb	0	; () banked
  7588  00146E  6F9F               	movwf	?_in_low_int& (0+255),b
  7589  001470  0012               	return	
  7590  001472                     __end_of_in_low_int:
  7591                           	opt stack 0
  7592                           pclatu	equ	0xFFB
  7593                           pclath	equ	0xFFA
  7594                           tblptru	equ	0xFF8
  7595                           tblptrh	equ	0xFF7
  7596                           tblptrl	equ	0xFF6
  7597                           tablat	equ	0xFF5
  7598                           prodh	equ	0xFF4
  7599                           prodl	equ	0xFF3
  7600                           intcon	equ	0xFF2
  7601                           postinc0	equ	0xFEE
  7602                           fsr0h	equ	0xFEA
  7603                           fsr0l	equ	0xFE9
  7604                           wreg	equ	0xFE8
  7605                           indf1	equ	0xFE7
  7606                           fsr1h	equ	0xFE2
  7607                           fsr1l	equ	0xFE1
  7608                           bsr	equ	0xFE0
  7609                           indf2	equ	0xFDF
  7610                           postinc2	equ	0xFDE
  7611                           postdec2	equ	0xFDD
  7612                           fsr2h	equ	0xFDA
  7613                           fsr2l	equ	0xFD9
  7614                           status	equ	0xFD8
  7615                           
  7616 ;; *************** function _in_high_int *****************
  7617 ;; Defined at:
  7618 ;;		line 25 in file "../src/interrupts.c"
  7619 ;; Parameters:    Size  Location     Type
  7620 ;;		None
  7621 ;; Auto vars:     Size  Location     Type
  7622 ;;		None
  7623 ;; Return value:  Size  Location     Type
  7624 ;;                  2    0[BANK0 ] int 
  7625 ;; Registers used:
  7626 ;;		wreg, status,2
  7627 ;; Tracked objects:
  7628 ;;		On entry : 0/0
  7629 ;;		On exit  : 0/0
  7630 ;;		Unchanged: 0/0
  7631 ;; Data sizes:     COMRAM   BANK0   BANK1   BANK2   BANK3   BANK4   BANK5   BANK6   BANK7   BANK8   BANK9  BANK10  BANK1
      +1  BANK12  BANK13  BANK14
  7632 ;;      Params:         0       2       0       0       0       0       0       0       0       0       0       0       
      +0       0       0       0
  7633 ;;      Locals:         0       0       0       0       0       0       0       0       0       0       0       0       
      +0       0       0       0
  7634 ;;      Temps:          0       0       0       0       0       0       0       0       0       0       0       0       
      +0       0       0       0
  7635 ;;      Totals:         0       2       0       0       0       0       0       0       0       0       0       0       
      +0       0       0       0
  7636 ;;Total ram usage:        2 bytes
  7637 ;; Hardware stack levels used:    1
  7638 ;; This function calls:
  7639 ;;		Nothing
  7640 ;; This function is called by:
  7641 ;;		_in_low_int
  7642 ;;		_SleepIfOkay
  7643 ;;		_in_main
  7644 ;; This function uses a non-reentrant model
  7645 ;;
  7646                           
  7647                           	psect	text47
  7648  0017FE                     __ptext47:
  7649                           	opt stack 0
  7650  0017FE                     _in_high_int:
  7651                           	opt stack 18
  7652                           
  7653                           ;interrupts.c: 26: return (!INTCONbits.GIEH);
  7654                           
  7655                           ; BSR set to: 0
  7656                           ;incstack = 0
  7657  0017FE  0E00               	movlw	0
  7658  001800  AEF2               	btfss	intcon,7,c	;volatile
  7659  001802  0E01               	movlw	1
  7660  001804  0100               	movlb	0	; () banked
  7661  001806  6F9D               	movwf	?_in_high_int& (0+255),b
  7662  001808  0100               	movlb	0	; () banked
  7663  00180A  6B9E               	clrf	(?_in_high_int+1)& (0+255),b
  7664  00180C  0012               	return	
  7665  00180E                     __end_of_in_high_int:
  7666                           	opt stack 0
  7667                           pclatu	equ	0xFFB
  7668                           pclath	equ	0xFFA
  7669                           tblptru	equ	0xFF8
  7670                           tblptrh	equ	0xFF7
  7671                           tblptrl	equ	0xFF6
  7672                           tablat	equ	0xFF5
  7673                           prodh	equ	0xFF4
  7674                           prodl	equ	0xFF3
  7675                           intcon	equ	0xFF2
  7676                           postinc0	equ	0xFEE
  7677                           fsr0h	equ	0xFEA
  7678                           fsr0l	equ	0xFE9
  7679                           wreg	equ	0xFE8
  7680                           indf1	equ	0xFE7
  7681                           fsr1h	equ	0xFE2
  7682                           fsr1l	equ	0xFE1
  7683                           bsr	equ	0xFE0
  7684                           indf2	equ	0xFDF
  7685                           postinc2	equ	0xFDE
  7686                           postdec2	equ	0xFDD
  7687                           fsr2h	equ	0xFDA
  7688                           fsr2l	equ	0xFD9
  7689                           status	equ	0xFD8
  7690                           
  7691 ;; *************** function _enter_sleep_mode *****************
  7692 ;; Defined at:
  7693 ;;		line 202 in file "../src/messages.c"
  7694 ;; Parameters:    Size  Location     Type
  7695 ;;		None
  7696 ;; Auto vars:     Size  Location     Type
  7697 ;;		None
  7698 ;; Return value:  Size  Location     Type
  7699 ;;		None               void
  7700 ;; Registers used:
  7701 ;;		None
  7702 ;; Tracked objects:
  7703 ;;		On entry : 0/0
  7704 ;;		On exit  : 0/0
  7705 ;;		Unchanged: 0/0
  7706 ;; Data sizes:     COMRAM   BANK0   BANK1   BANK2   BANK3   BANK4   BANK5   BANK6   BANK7   BANK8   BANK9  BANK10  BANK1
      +1  BANK12  BANK13  BANK14
  7707 ;;      Params:         0       0       0       0       0       0       0       0       0       0       0       0       
      +0       0       0       0
  7708 ;;      Locals:         0       0       0       0       0       0       0       0       0       0       0       0       
      +0       0       0       0
  7709 ;;      Temps:          0       0       0       0       0       0       0       0       0       0       0       0       
      +0       0       0       0
  7710 ;;      Totals:         0       0       0       0       0       0       0       0       0       0       0       0       
      +0       0       0       0
  7711 ;;Total ram usage:        0 bytes
  7712 ;; Hardware stack levels used:    1
  7713 ;; This function calls:
  7714 ;;		Nothing
  7715 ;; This function is called by:
  7716 ;;		_SleepIfOkay
  7717 ;; This function uses a non-reentrant model
  7718 ;;
  7719                           
  7720                           	psect	text48
  7721  00182C                     __ptext48:
  7722                           	opt stack 0
  7723  00182C                     _enter_sleep_mode:
  7724                           	opt stack 19
  7725                           
  7726                           ;messages.c: 204: OSCCONbits.IDLEN = 1;
  7727                           
  7728                           ; BSR set to: 0
  7729                           ;incstack = 0
  7730  00182C  8ED3               	bsf	4051,7,c	;volatile
  7731  00182E  0003               	sleep		;# 
  7732  001830  0012               	return	
  7733  001832                     __end_of_enter_sleep_mode:
  7734                           	opt stack 0
  7735                           pclatu	equ	0xFFB
  7736                           pclath	equ	0xFFA
  7737                           tblptru	equ	0xFF8
  7738                           tblptrh	equ	0xFF7
  7739                           tblptrl	equ	0xFF6
  7740                           tablat	equ	0xFF5
  7741                           prodh	equ	0xFF4
  7742                           prodl	equ	0xFF3
  7743                           intcon	equ	0xFF2
  7744                           postinc0	equ	0xFEE
  7745                           fsr0h	equ	0xFEA
  7746                           fsr0l	equ	0xFE9
  7747                           wreg	equ	0xFE8
  7748                           indf1	equ	0xFE7
  7749                           fsr1h	equ	0xFE2
  7750                           fsr1l	equ	0xFE1
  7751                           bsr	equ	0xFE0
  7752                           indf2	equ	0xFDF
  7753                           postinc2	equ	0xFDE
  7754                           postdec2	equ	0xFDD
  7755                           fsr2h	equ	0xFDA
  7756                           fsr2l	equ	0xFD9
  7757                           status	equ	0xFD8
  7758                           
  7759 ;; *************** function _check_msg *****************
  7760 ;; Defined at:
  7761 ;;		line 220 in file "../src/messages.c"
  7762 ;; Parameters:    Size  Location     Type
  7763 ;;  qptr            2    0[BANK0 ] PTR struct __msg_queue
  7764 ;;		 -> ToMainHigh_MQ(54), ToMainLow_MQ(54), 
  7765 ;; Auto vars:     Size  Location     Type
  7766 ;;		None
  7767 ;; Return value:  Size  Location     Type
  7768 ;;                  1    wreg      unsigned char 
  7769 ;; Registers used:
  7770 ;;		wreg, fsr2l, fsr2h, status,2, status,0, prodl, prodh
  7771 ;; Tracked objects:
  7772 ;;		On entry : 0/0
  7773 ;;		On exit  : 0/0
  7774 ;;		Unchanged: 0/0
  7775 ;; Data sizes:     COMRAM   BANK0   BANK1   BANK2   BANK3   BANK4   BANK5   BANK6   BANK7   BANK8   BANK9  BANK10  BANK1
      +1  BANK12  BANK13  BANK14
  7776 ;;      Params:         0       2       0       0       0       0       0       0       0       0       0       0       
      +0       0       0       0
  7777 ;;      Locals:         0       0       0       0       0       0       0       0       0       0       0       0       
      +0       0       0       0
  7778 ;;      Temps:          0       1       0       0       0       0       0       0       0       0       0       0       
      +0       0       0       0
  7779 ;;      Totals:         0       3       0       0       0       0       0       0       0       0       0       0       
      +0       0       0       0
  7780 ;;Total ram usage:        3 bytes
  7781 ;; Hardware stack levels used:    1
  7782 ;; This function calls:
  7783 ;;		Nothing
  7784 ;; This function is called by:
  7785 ;;		_SleepIfOkay
  7786 ;;		_block_on_To_msgqueues
  7787 ;; This function uses a non-reentrant model
  7788 ;;
  7789                           
  7790                           	psect	text49
  7791  001622                     __ptext49:
  7792                           	opt stack 0
  7793  001622                     _check_msg:
  7794                           	opt stack 19
  7795                           
  7796                           ;messages.c: 221: return (qptr->queue[qptr->cur_read_ind].full);
  7797                           
  7798                           ;incstack = 0
  7799  001622  0100               	movlb	0	; () banked
  7800  001624  EE20 F035          	lfsr	2,53
  7801  001628  0100               	movlb	0	; () banked
  7802  00162A  519D               	movf	check_msg@qptr& (0+255),w,b
  7803  00162C  26D9               	addwf	fsr2l,f,c
  7804  00162E  0100               	movlb	0	; () banked
  7805  001630  519E               	movf	(check_msg@qptr+1)& (0+255),w,b
  7806  001632  22DA               	addwfc	fsr2h,f,c
  7807  001634  50DF               	movf	indf2,w,c
  7808  001636  0100               	movlb	0	; () banked
  7809  001638  6F9F               	movwf	??_check_msg& (0+255),b
  7810  00163A  0100               	movlb	0	; () banked
  7811  00163C  519F               	movf	??_check_msg& (0+255),w,b
  7812  00163E  0D0D               	mullw	13
  7813  001640  50F3               	movf	prodl,w,c
  7814  001642  0100               	movlb	0	; () banked
  7815  001644  259D               	addwf	check_msg@qptr& (0+255),w,b
  7816  001646  6ED9               	movwf	fsr2l,c
  7817  001648  50F4               	movf	prodh,w,c
  7818  00164A  0100               	movlb	0	; () banked
  7819  00164C  219E               	addwfc	(check_msg@qptr+1)& (0+255),w,b
  7820  00164E  6EDA               	movwf	fsr2h,c
  7821  001650  50DF               	movf	indf2,w,c
  7822  001652  0012               	return	
  7823  001654                     __end_of_check_msg:
  7824                           	opt stack 0
  7825  0000                     pclatu	equ	0xFFB
  7826                           pclath	equ	0xFFA
  7827                           tblptru	equ	0xFF8
  7828                           tblptrh	equ	0xFF7
  7829                           tblptrl	equ	0xFF6
  7830                           tablat	equ	0xFF5
  7831                           prodh	equ	0xFF4
  7832                           prodl	equ	0xFF3
  7833                           intcon	equ	0xFF2
  7834                           postinc0	equ	0xFEE
  7835                           fsr0h	equ	0xFEA
  7836                           fsr0l	equ	0xFE9
  7837                           wreg	equ	0xFE8
  7838                           indf1	equ	0xFE7
  7839                           fsr1h	equ	0xFE2
  7840                           fsr1l	equ	0xFE1
  7841                           bsr	equ	0xFE0
  7842                           indf2	equ	0xFDF
  7843                           postinc2	equ	0xFDE
  7844                           postdec2	equ	0xFDD
  7845                           fsr2h	equ	0xFDA
  7846                           fsr2l	equ	0xFD9
  7847                           status	equ	0xFD8
  7848                           pclatu	equ	0xFFB
  7849                           pclath	equ	0xFFA
  7850                           tblptru	equ	0xFF8
  7851                           tblptrh	equ	0xFF7
  7852                           tblptrl	equ	0xFF6
  7853                           tablat	equ	0xFF5
  7854                           prodh	equ	0xFF4
  7855                           prodl	equ	0xFF3
  7856                           intcon	equ	0xFF2
  7857                           postinc0	equ	0xFEE
  7858                           fsr0h	equ	0xFEA
  7859                           fsr0l	equ	0xFE9
  7860                           wreg	equ	0xFE8
  7861                           indf1	equ	0xFE7
  7862                           fsr1h	equ	0xFE2
  7863                           fsr1l	equ	0xFE1
  7864                           bsr	equ	0xFE0
  7865                           indf2	equ	0xFDF
  7866                           postinc2	equ	0xFDE
  7867                           postdec2	equ	0xFDD
  7868                           fsr2h	equ	0xFDA
  7869                           fsr2l	equ	0xFD9
  7870                           status	equ	0xFD8
  7871                           
  7872                           	psect	param0
  7873  0000                     pclatu	equ	0xFFB
  7874                           pclath	equ	0xFFA
  7875                           tblptru	equ	0xFF8
  7876                           tblptrh	equ	0xFF7
  7877                           tblptrl	equ	0xFF6
  7878                           tablat	equ	0xFF5
  7879                           prodh	equ	0xFF4
  7880                           prodl	equ	0xFF3
  7881                           intcon	equ	0xFF2
  7882                           postinc0	equ	0xFEE
  7883                           fsr0h	equ	0xFEA
  7884                           fsr0l	equ	0xFE9
  7885                           wreg	equ	0xFE8
  7886                           indf1	equ	0xFE7
  7887                           fsr1h	equ	0xFE2
  7888                           fsr1l	equ	0xFE1
  7889                           bsr	equ	0xFE0
  7890                           indf2	equ	0xFDF
  7891                           postinc2	equ	0xFDE
  7892                           postdec2	equ	0xFDD
  7893                           fsr2h	equ	0xFDA
  7894                           fsr2l	equ	0xFD9
  7895                           status	equ	0xFD8


Data Sizes:
    Strings     0
    Constant    0
    Data        0
    BSS         231
    Persistent  2
    Stack       0

Auto Spaces:
    Space          Size  Autos    Used
    COMRAM           95     45      53
    BANK0           160     50     113
    BANK1           256     87     249
    BANK2           256      0       0
    BANK3           256      0       0
    BANK4           256      0       0
    BANK5           256      0       0
    BANK6           256      0       0
    BANK7           256      0       0
    BANK8           256      0       0
    BANK9           256      0       0
    BANK10          256      0       0
    BANK11          256      0       0
    BANK12          256      0       0
    BANK13          256      0       0
    BANK14          192      0       0

Pointer List with Targets:

    uart_lthread@uptr	PTR struct __uart_thread_struct size(2) Largest target is 2
		 -> main@uthread_data(BANK1[2]), 

    timer1_lthread@msgbuffer	PTR unsigned char  size(2) Largest target is 11
		 -> main@msgbuffer(BANK1[11]), 

    timer0_lthread@tptr	PTR struct __timer0_thread_struct size(2) Largest target is 2
		 -> main@t0thread_data(BANK1[2]), 

    memcpy@d1	PTR void  size(2) Largest target is 54
		 -> FromMainLow_MQ.queue(BANK1[52]), FromMainHigh_MQ.queue(BANK1[52]), ToMainHigh_MQ.queue(BANK1[52]), ToMainLow_MQ.queue(BANK0[52]), 
		 -> timer0_int_handler@val(BANK0[2]), FromMainHigh_MQ(BANK1[54]), FromMainLow_MQ(BANK1[54]), ToMainHigh_MQ(BANK1[54]), 
		 -> ToMainLow_MQ(BANK0[54]), main@msgbuffer(BANK1[11]), 

    memcpy@d	PTR unsigned char  size(2) Largest target is 54
		 -> FromMainLow_MQ.queue(BANK1[52]), FromMainHigh_MQ.queue(BANK1[52]), ToMainHigh_MQ.queue(BANK1[52]), ToMainLow_MQ.queue(BANK0[52]), 
		 -> timer0_int_handler@val(BANK0[2]), FromMainHigh_MQ(BANK1[54]), FromMainLow_MQ(BANK1[54]), ToMainHigh_MQ(BANK1[54]), 
		 -> ToMainLow_MQ(BANK0[54]), main@msgbuffer(BANK1[11]), 

    memcpy@s1	PTR const void  size(2) Largest target is 54
		 -> ToMainLow_MQ.data(BANK0[10]), ToMainHigh_MQ.data(BANK1[10]), FromMainLow_MQ.data(BANK1[10]), FromMainHigh_MQ.data(BANK1[10]), 
		 -> ToMainLow_MQ.queue.data(BANK0[10]), ToMainHigh_MQ.queue.data(BANK1[10]), FromMainHigh_MQ.queue.data(BANK1[10]), FromMainLow_MQ.queue.data(BANK1[10]), 
		 -> NULL(NULL[0]), timer0_int_handler@val(BANK0[2]), i2c_int_handler@error_buf(BANK0[3]), FromMainHigh_MQ(BANK1[54]), 
		 -> FromMainLow_MQ(BANK1[54]), ToMainHigh_MQ(BANK1[54]), ToMainLow_MQ(BANK0[54]), main@t1thread_data(BANK1[2]), 
		 -> main@ic(BANK1[28]), 

    memcpy@s	PTR const unsigned char  size(2) Largest target is 54
		 -> ToMainLow_MQ.data(BANK0[10]), ToMainHigh_MQ.data(BANK1[10]), FromMainLow_MQ.data(BANK1[10]), FromMainHigh_MQ.data(BANK1[10]), 
		 -> ToMainLow_MQ.queue.data(BANK0[10]), ToMainHigh_MQ.queue.data(BANK1[10]), FromMainHigh_MQ.queue.data(BANK1[10]), FromMainLow_MQ.queue.data(BANK1[10]), 
		 -> NULL(NULL[0]), timer0_int_handler@val(BANK0[2]), i2c_int_handler@error_buf(BANK0[3]), FromMainHigh_MQ(BANK1[54]), 
		 -> FromMainLow_MQ(BANK1[54]), ToMainHigh_MQ(BANK1[54]), ToMainLow_MQ(BANK0[54]), main@t1thread_data(BANK1[2]), 
		 -> main@ic(BANK1[28]), 

    uart_lthread@msgbuffer	PTR unsigned char  size(2) Largest target is 11
		 -> main@msgbuffer(BANK1[11]), 

    timer1_lthread@tptr	PTR struct __timer1_thread_struct size(2) Largest target is 2
		 -> main@t1thread_data(BANK1[2]), 

    init_timer1_lthread@tptr	PTR struct __timer1_thread_struct size(2) Largest target is 2
		 -> main@t1thread_data(BANK1[2]), 

    timer0_lthread@msgbuffer	PTR unsigned char  size(2) Largest target is 11
		 -> main@msgbuffer(BANK1[11]), 

    timer0_lthread@msgval	PTR unsigned int  size(2) Largest target is 11
		 -> main@msgbuffer(BANK1[11]), 

    init_i2c@ic	PTR struct __i2c_comm size(2) Largest target is 28
		 -> main@ic(BANK1[28]), 

    start_i2c_slave_reply@msg	PTR unsigned char  size(2) Largest target is 11
		 -> main@msgbuffer(BANK1[11]), 

    ic_ptr	PTR struct __i2c_comm size(2) Largest target is 28
		 -> NULL(NULL[0]), main@ic(BANK1[28]), 

    check_msg@qptr	PTR struct __msg_queue size(2) Largest target is 54
		 -> ToMainHigh_MQ(BANK1[54]), ToMainLow_MQ(BANK0[54]), 

    FromMainHigh_recvmsg@data	PTR void  size(2) Largest target is 2
		 -> timer0_int_handler@val(BANK0[2]), 

    FromMainHigh_recvmsg@msgtype	PTR unsigned char  size(2) Largest target is 2
		 -> timer0_int_handler@msgtype(BANK0[2]), 

    FromMainHigh_sendmsg@data	PTR void  size(2) Largest target is 2
		 -> main@t1thread_data(BANK1[2]), 

    ToMainHigh_recvmsg@data	PTR void  size(2) Largest target is 11
		 -> main@msgbuffer(BANK1[11]), 

    ToMainHigh_recvmsg@msgtype	PTR unsigned char  size(2) Largest target is 1
		 -> main@msgtype(BANK1[1]), 

    ToMainHigh_sendmsg@data	PTR void  size(2) Largest target is 28
		 -> NULL(NULL[0]), timer0_int_handler@val(BANK0[2]), i2c_int_handler@error_buf(BANK0[3]), main@ic(BANK1[28]), 

    ToMainLow_recvmsg@data	PTR void  size(2) Largest target is 11
		 -> main@msgbuffer(BANK1[11]), 

    ToMainLow_recvmsg@msgtype	PTR unsigned char  size(2) Largest target is 1
		 -> main@msgtype(BANK1[1]), 

    ToMainLow_sendmsg@data	PTR void  size(2) Largest target is 0
		 -> NULL(NULL[0]), 

    recv_msg@msgtype	PTR unsigned char  size(2) Largest target is 2
		 -> timer0_int_handler@msgtype(BANK0[2]), main@msgtype(BANK1[1]), 

    recv_msg@data	PTR void  size(2) Largest target is 11
		 -> timer0_int_handler@val(BANK0[2]), main@msgbuffer(BANK1[11]), 

    recv_msg@qmsg	PTR struct __msg size(2) Largest target is 54
		 -> FromMainLow_MQ.queue(BANK1[52]), FromMainHigh_MQ.queue(BANK1[52]), ToMainHigh_MQ.queue(BANK1[52]), ToMainLow_MQ.queue(BANK0[52]), 
		 -> FromMainHigh_MQ(BANK1[54]), FromMainLow_MQ(BANK1[54]), ToMainHigh_MQ(BANK1[54]), ToMainLow_MQ(BANK0[54]), 

    recv_msg@qptr	PTR struct __msg_queue size(2) Largest target is 54
		 -> FromMainHigh_MQ(BANK1[54]), FromMainLow_MQ(BANK1[54]), ToMainHigh_MQ(BANK1[54]), ToMainLow_MQ(BANK0[54]), 

    sp__memcpy	PTR void  size(2) Largest target is 54
		 -> FromMainLow_MQ.queue(BANK1[52]), FromMainHigh_MQ.queue(BANK1[52]), ToMainHigh_MQ.queue(BANK1[52]), ToMainLow_MQ.queue(BANK0[52]), 
		 -> timer0_int_handler@val(BANK0[2]), FromMainHigh_MQ(BANK1[54]), FromMainLow_MQ(BANK1[54]), ToMainHigh_MQ(BANK1[54]), 
		 -> ToMainLow_MQ(BANK0[54]), main@msgbuffer(BANK1[11]), 

    send_msg@data	PTR void  size(2) Largest target is 28
		 -> NULL(NULL[0]), timer0_int_handler@val(BANK0[2]), i2c_int_handler@error_buf(BANK0[3]), main@t1thread_data(BANK1[2]), 
		 -> main@ic(BANK1[28]), 

    send_msg@qmsg	PTR struct __msg size(2) Largest target is 54
		 -> FromMainLow_MQ.queue(BANK1[52]), FromMainHigh_MQ.queue(BANK1[52]), ToMainHigh_MQ.queue(BANK1[52]), ToMainLow_MQ.queue(BANK0[52]), 
		 -> FromMainHigh_MQ(BANK1[54]), FromMainLow_MQ(BANK1[54]), ToMainHigh_MQ(BANK1[54]), ToMainLow_MQ(BANK0[54]), 

    send_msg@qptr	PTR struct __msg_queue size(2) Largest target is 54
		 -> FromMainHigh_MQ(BANK1[54]), FromMainLow_MQ(BANK1[54]), ToMainHigh_MQ(BANK1[54]), ToMainLow_MQ(BANK0[54]), 

    init_queue@qptr	PTR struct __msg_queue size(2) Largest target is 54
		 -> FromMainHigh_MQ(BANK1[54]), FromMainLow_MQ(BANK1[54]), ToMainHigh_MQ(BANK1[54]), ToMainLow_MQ(BANK0[54]), 


Critical Paths under _main in COMRAM

    None.

Critical Paths under _InterruptHandlerHigh in COMRAM

    None.

Critical Paths under _InterruptHandlerLow in COMRAM

    _InterruptHandlerLow->_timer1_int_handler
    _timer1_int_handler->_ToMainLow_sendmsg
    _ToMainLow_sendmsg->i1_send_msg
    i1_send_msg->i1_memcpy

Critical Paths under _main in BANK0

    None.

Critical Paths under _InterruptHandlerHigh in BANK0

    _InterruptHandlerHigh->_i2c_int_handler
    _timer0_int_handler->_FromMainHigh_recvmsg
    _FromMainHigh_recvmsg->i2_recv_msg
    i2_recv_msg->i2_memcpy
    _i2c_int_handler->_ToMainHigh_sendmsg
    _ToMainHigh_sendmsg->i2_send_msg
    i2_send_msg->i2_memcpy
    _SleepIfOkay->_in_low_int
    _in_low_int->_in_high_int

Critical Paths under _InterruptHandlerLow in BANK0

    None.

Critical Paths under _main in BANK1

    _main->_timer1_lthread
    _timer1_lthread->_FromMainHigh_sendmsg
    _FromMainHigh_sendmsg->_send_msg
    _send_msg->_memcpy
    _init_queues->_init_queue
    _ToMainLow_recvmsg->_recv_msg
    _ToMainHigh_recvmsg->_recv_msg
    _recv_msg->_memcpy

Critical Paths under _InterruptHandlerHigh in BANK1

    None.

Critical Paths under _InterruptHandlerLow in BANK1

    None.

Critical Paths under _main in BANK2

    None.

Critical Paths under _InterruptHandlerHigh in BANK2

    None.

Critical Paths under _InterruptHandlerLow in BANK2

    None.

Critical Paths under _main in BANK3

    None.

Critical Paths under _InterruptHandlerHigh in BANK3

    None.

Critical Paths under _InterruptHandlerLow in BANK3

    None.

Critical Paths under _main in BANK4

    None.

Critical Paths under _InterruptHandlerHigh in BANK4

    None.

Critical Paths under _InterruptHandlerLow in BANK4

    None.

Critical Paths under _main in BANK5

    None.

Critical Paths under _InterruptHandlerHigh in BANK5

    None.

Critical Paths under _InterruptHandlerLow in BANK5

    None.

Critical Paths under _main in BANK6

    None.

Critical Paths under _InterruptHandlerHigh in BANK6

    None.

Critical Paths under _InterruptHandlerLow in BANK6

    None.

Critical Paths under _main in BANK7

    None.

Critical Paths under _InterruptHandlerHigh in BANK7

    None.

Critical Paths under _InterruptHandlerLow in BANK7

    None.

Critical Paths under _main in BANK8

    None.

Critical Paths under _InterruptHandlerHigh in BANK8

    None.

Critical Paths under _InterruptHandlerLow in BANK8

    None.

Critical Paths under _main in BANK9

    None.

Critical Paths under _InterruptHandlerHigh in BANK9

    None.

Critical Paths under _InterruptHandlerLow in BANK9

    None.

Critical Paths under _main in BANK10

    None.

Critical Paths under _InterruptHandlerHigh in BANK10

    None.

Critical Paths under _InterruptHandlerLow in BANK10

    None.

Critical Paths under _main in BANK11

    None.

Critical Paths under _InterruptHandlerHigh in BANK11

    None.

Critical Paths under _InterruptHandlerLow in BANK11

    None.

Critical Paths under _main in BANK12

    None.

Critical Paths under _InterruptHandlerHigh in BANK12

    None.

Critical Paths under _InterruptHandlerLow in BANK12

    None.

Critical Paths under _main in BANK13

    None.

Critical Paths under _InterruptHandlerHigh in BANK13

    None.

Critical Paths under _InterruptHandlerLow in BANK13

    None.

Critical Paths under _main in BANK14

    None.

Critical Paths under _InterruptHandlerHigh in BANK14

    None.

Critical Paths under _InterruptHandlerLow in BANK14

    None.

Call Graph Tables:

 ---------------------------------------------------------------------------------
 (Depth) Function   	        Calls       Base Space   Used Autos Params    Refs
 ---------------------------------------------------------------------------------
 (0) _main                                                54    54      0   10359
                                             35 BANK1     52    52      0
                         _OpenTimer0
                         _OpenTimer1
                 _ToMainHigh_recvmsg
                  _ToMainLow_recvmsg
                               _blip
                  _enable_interrupts
                _i2c_configure_slave
                           _init_i2c
                        _init_queues
                _init_timer1_lthread
              _start_i2c_slave_reply
                     _timer0_lthread
                     _timer1_lthread
                     _uart_configure
                      _uart_get_byte
                       _uart_lthread
          _uart_receive_buffer_empty
                     _uart_send_byte
 ---------------------------------------------------------------------------------
 (1) _uart_send_byte                                       1     1      0      31
                                              0 BANK1      1     1      0
 ---------------------------------------------------------------------------------
 (1) _uart_receive_buffer_empty                            2     0      2       0
                                              0 BANK1      2     0      2
 ---------------------------------------------------------------------------------
 (1) _uart_lthread                                         8     0      8     384
                                              0 BANK1      8     0      8
 ---------------------------------------------------------------------------------
 (1) _uart_get_byte                                        1     1      0      34
                                              0 BANK1      1     1      0
 ---------------------------------------------------------------------------------
 (1) _uart_configure                                       0     0      0       0
 ---------------------------------------------------------------------------------
 (1) _timer1_lthread                                       9     1      8    2710
                                             26 BANK1      9     1      8
               _FromMainHigh_sendmsg
                            ___lwmod
 ---------------------------------------------------------------------------------
 (2) ___lwmod                                              5     1      4     302
                                              0 BANK1      5     1      4
 ---------------------------------------------------------------------------------
 (2) _FromMainHigh_sendmsg                                 4     1      3    2021
                                             22 BANK1      4     1      3
                           _send_msg
 ---------------------------------------------------------------------------------
 (3) _send_msg                                            12     6      6    1798
                                             10 BANK1     12     6      6
                             _memcpy
 ---------------------------------------------------------------------------------
 (1) _timer0_lthread                                      10     2      8     294
                                              0 BANK1     10     2      8
 ---------------------------------------------------------------------------------
 (1) _start_i2c_slave_reply                                5     3      2     158
                                              0 BANK1      5     3      2
 ---------------------------------------------------------------------------------
 (1) _init_timer1_lthread                                  2     0      2      96
                                              0 BANK1      2     0      2
 ---------------------------------------------------------------------------------
 (1) _init_queues                                          0     0      0     452
                         _init_queue
 ---------------------------------------------------------------------------------
 (2) _init_queue                                           3     1      2     452
                                              0 BANK1      3     1      2
 ---------------------------------------------------------------------------------
 (1) _init_i2c                                             2     0      2      96
                                              0 BANK1      2     0      2
 ---------------------------------------------------------------------------------
 (1) _i2c_configure_slave                                  1     1      0      31
                                              0 BANK1      1     1      0
 ---------------------------------------------------------------------------------
 (1) _enable_interrupts                                    0     0      0       0
 ---------------------------------------------------------------------------------
 (1) _blip                                                 0     0      0       0
 ---------------------------------------------------------------------------------
 (1) _ToMainLow_recvmsg                                    5     1      4    2192
                                             24 BANK1      5     1      4
                           _recv_msg
 ---------------------------------------------------------------------------------
 (1) _ToMainHigh_recvmsg                                   5     1      4    2192
                                             24 BANK1      5     1      4
                           _recv_msg
 ---------------------------------------------------------------------------------
 (2) _recv_msg                                            14     7      7    1969
                                             10 BANK1     14     7      7
                             _memcpy
 ---------------------------------------------------------------------------------
 (4) _memcpy                                              10     4      6     564
                                              0 BANK1     10     4      6
 ---------------------------------------------------------------------------------
 (1) _OpenTimer1                                           3     2      1     158
                                              0 BANK1      3     2      1
 ---------------------------------------------------------------------------------
 (1) _OpenTimer0                                           1     1      0      62
                                              0 BANK1      1     1      0
 ---------------------------------------------------------------------------------
 Estimated maximum stack depth 4
 ---------------------------------------------------------------------------------
 (Depth) Function   	        Calls       Base Space   Used Autos Params    Refs
 ---------------------------------------------------------------------------------
 (5) _InterruptHandlerLow                                 17    17      0     926
                                             28 COMRAM    17    17      0
                 _timer1_int_handler
                  _uart_receive_byte
             _uart_send_buffer_empty
                 _uart_transmit_byte
 ---------------------------------------------------------------------------------
 (6) _uart_transmit_byte                                   0     0      0       0
 ---------------------------------------------------------------------------------
 (6) _uart_send_buffer_empty                               2     0      2       0
                                              0 COMRAM     2     0      2
 ---------------------------------------------------------------------------------
 (6) _uart_receive_byte                                    0     0      0       0
 ---------------------------------------------------------------------------------
 (6) _timer1_int_handler                                   2     2      0     926
                                             26 COMRAM     2     2      0
                         _ReadTimer1
                  _ToMainLow_sendmsg
                        _WriteTimer1
 ---------------------------------------------------------------------------------
 (7) _WriteTimer1                                          4     2      2      88
                                              0 COMRAM     4     2      2
 ---------------------------------------------------------------------------------
 (7) _ToMainLow_sendmsg                                    4     1      3     807
                                             22 COMRAM     4     1      3
                         i1_send_msg
 ---------------------------------------------------------------------------------
 (8) i1_send_msg                                          12     6      6     635
                                             10 COMRAM    12     6      6
                           i1_memcpy
 ---------------------------------------------------------------------------------
 (9) i1_memcpy                                            10     4      6     198
                                              0 COMRAM    10     4      6
 ---------------------------------------------------------------------------------
 (7) _ReadTimer1                                           4     2      2      30
                                              0 COMRAM     4     2      2
 ---------------------------------------------------------------------------------
 Estimated maximum stack depth 9
 ---------------------------------------------------------------------------------
 (Depth) Function   	        Calls       Base Space   Used Autos Params    Refs
 ---------------------------------------------------------------------------------
 (10) _InterruptHandlerHigh                               14    14      0    5737
                                             36 BANK0     14    14      0
                        _SleepIfOkay
                    _i2c_int_handler
                 _timer0_int_handler
 ---------------------------------------------------------------------------------
 (11) _timer0_int_handler                                  6     6      0    3193
                                             29 BANK0      6     6      0
               _FromMainHigh_recvmsg
                 _ToMainHigh_sendmsg
                        _WriteTimer0
 ---------------------------------------------------------------------------------
 (12) _WriteTimer0                                         4     2      2     164
                                              0 BANK0      4     2      2
 ---------------------------------------------------------------------------------
 (12) _FromMainHigh_recvmsg                                5     1      4    1252
                                             24 BANK0      5     1      4
                         i2_recv_msg
 ---------------------------------------------------------------------------------
 (13) i2_recv_msg                                         14     7      7    1029
                                             10 BANK0     14     7      7
                           i2_memcpy
 ---------------------------------------------------------------------------------
 (11) _i2c_int_handler                                    10    10      0    2222
                                             26 BANK0     10    10      0
                 _ToMainHigh_sendmsg
                       _handle_start
 ---------------------------------------------------------------------------------
 (12) _handle_start                                        1     1      0      31
                                              0 BANK0      1     1      0
 ---------------------------------------------------------------------------------
 (12) _ToMainHigh_sendmsg                                  4     1      3    1611
                                             22 BANK0      4     1      3
                         i2_send_msg
 ---------------------------------------------------------------------------------
 (13) i2_send_msg                                         12     6      6     998
                                             10 BANK0     12     6      6
                           i2_memcpy
 ---------------------------------------------------------------------------------
 (14) i2_memcpy                                           10     4      6     384
                                              0 BANK0     10     4      6
 ---------------------------------------------------------------------------------
 (11) _SleepIfOkay                                         0     0      0     322
                          _check_msg
                   _enter_sleep_mode
                        _in_high_int
                         _in_low_int
 ---------------------------------------------------------------------------------
 (12) _in_low_int                                          2     0      2       0
                                              2 BANK0      2     0      2
                        _in_high_int
 ---------------------------------------------------------------------------------
 (13) _in_high_int                                         2     0      2       0
                                              0 BANK0      2     0      2
 ---------------------------------------------------------------------------------
 (12) _enter_sleep_mode                                    0     0      0       0
 ---------------------------------------------------------------------------------
 (12) _check_msg                                           3     1      2     322
                                              0 BANK0      3     1      2
 ---------------------------------------------------------------------------------
 Estimated maximum stack depth 14
 ---------------------------------------------------------------------------------

 Call Graph Graphs:

 _main (ROOT)
   _OpenTimer0
   _OpenTimer1
   _ToMainHigh_recvmsg
     _recv_msg
       _memcpy
   _ToMainLow_recvmsg
     _recv_msg
       _memcpy
   _blip
   _enable_interrupts
   _i2c_configure_slave
   _init_i2c
   _init_queues
     _init_queue
   _init_timer1_lthread
   _start_i2c_slave_reply
   _timer0_lthread
   _timer1_lthread
     _FromMainHigh_sendmsg
       _send_msg
         _memcpy
     ___lwmod
   _uart_configure
   _uart_get_byte
   _uart_lthread
   _uart_receive_buffer_empty
   _uart_send_byte

 _InterruptHandlerLow (ROOT)
   _timer1_int_handler
     _ReadTimer1
     _ToMainLow_sendmsg
       i1_send_msg
         i1_memcpy
     _WriteTimer1
   _uart_receive_byte
   _uart_send_buffer_empty
   _uart_transmit_byte

 _InterruptHandlerHigh (ROOT)
   _SleepIfOkay
     _check_msg
     _enter_sleep_mode
     _in_high_int
     _in_low_int
       _in_high_int
   _i2c_int_handler
     _ToMainHigh_sendmsg
       i2_send_msg
         i2_memcpy
     _handle_start
   _timer0_int_handler
     _FromMainHigh_recvmsg
       i2_recv_msg
         i2_memcpy
     _ToMainHigh_sendmsg
       i2_send_msg
         i2_memcpy
     _WriteTimer0

 Address spaces:
Name               Size   Autos  Total    Cost      Usage
BIGRAM             EBF      0       0      35        0.0%
BITBANK13          100      0       0      31        0.0%
BANK13             100      0       0      32        0.0%
BITBANK12          100      0       0      29        0.0%
BANK12             100      0       0      30        0.0%
BITBANK11          100      0       0      27        0.0%
BANK11             100      0       0      28        0.0%
BITBANK10          100      0       0      25        0.0%
BANK10             100      0       0      26        0.0%
BITBANK9           100      0       0      23        0.0%
BANK9              100      0       0      24        0.0%
BITBANK8           100      0       0      21        0.0%
BANK8              100      0       0      22        0.0%
BITBANK7           100      0       0      19        0.0%
BANK7              100      0       0      20        0.0%
BITBANK6           100      0       0      17        0.0%
BANK6              100      0       0      18        0.0%
BITBANK5           100      0       0      15        0.0%
BANK5              100      0       0      16        0.0%
BITBANK4           100      0       0      13        0.0%
BANK4              100      0       0      14        0.0%
BITBANK3           100      0       0      11        0.0%
BANK3              100      0       0      12        0.0%
BITBANK2           100      0       0       9        0.0%
BANK2              100      0       0      10        0.0%
BITBANK1           100      0       0       7        0.0%
BANK1              100     57      F9       8       97.3%
BITBANK14           C0      0       0      33        0.0%
BANK14              C0      0       0      34        0.0%
BITBANK0            A0      0       0       4        0.0%
BANK0               A0     32      71       5       70.6%
BITCOMRAM           5F      0       0       0        0.0%
COMRAM              5F     2D      35       1       55.8%
BITSFR_2             0      0       0      40        0.0%
SFR_2                0      0       0      40        0.0%
BITSFR_1             0      0       0      40        0.0%
SFR_1                0      0       0      40        0.0%
BITSFR               0      0       0      40        0.0%
SFR                  0      0       0      40        0.0%
STACK                0      0       0       2        0.0%
NULL                 0      0       0       0        0.0%
ABS                  0      0     19F       6        0.0%
DATA                 0      0     19F       3        0.0%
CODE                 0      0       0       0        0.0%


Microchip Technology PIC18 Macro Assembler V1.32 build 58300 
Symbol Table                                                                                   Thu Sep 18 10:09:54 2014

                  main@uthread_data 01D1            _MQ_Main_Willing_to_block 002E  
            _uart_send_buffer_empty 179A                         _SSPSTATbits 000FC7  
         __end_of_ToMainLow_recvmsg 151E                     ??_uart_get_byte 01A2  
                                bsr 000FE0           __end_of_ToMainLow_sendmsg 179A  
                      __CFG_CP0$OFF 000000                   i2recv_msg@msgtype 00AA  
                 i2recv_msg@tlength 00B1                                 l138 07A4  
                               l464 1750                                 l465 1752  
                               l492 14A4                                 l493 14A6  
              __size_of_WriteTimer0 0012                __size_of_WriteTimer1 0012  
                  ??_uart_configure 01A2                      _FromMainLow_MQ 0136  
                               prod 000FF3                                 wreg 000FE8  
                        _TXSTA1bits 000FAD                        __CFG_IESO$ON 000000  
                      ?_in_high_int 009D                     ReadTimer1@timer 0003  
               i2recv_msg@maxlength 00A9                                l1041 11F8  
                              l3012 11EA                                l3004 11B4  
                              l3006 11C0                                l3008 11C6  
                              l3314 15CE                                l3340 13C0  
                              l3332 176A                                l3510 08D0  
                              l3504 084C                                l3506 088E  
                              l2804 134E                                l3364 0B40  
                              l3368 0BBC                                l2832 0C76  
                              l3480 07AA                                l3472 0730  
                              l3464 070C                                l3456 06E8  
                              l3448 06C4                                l3490 07CE  
                              l3484 07B6                                l3492 07E4  
                              l3486 07C0                                l3478 0762  
                              l2928 117A                                l3496 07FE  
                              l2946 0948                                l2962 0A02  
                              l3498 081A                                l2798 132E  
                              _LATB 000F8A                                _LATD 000F8C  
                              i1l61 0088                         main@myByte1 01D8  
                       main@myByte2 01D6                         main@myByte3 01D7  
                   _FromMainHigh_MQ 0100                                _blip 1824  
                              _main 0646                                fsr0h 000FEA  
                              fsr1h 000FE2                                fsr0l 000FE9  
                              fsr2h 000FDA                                indf1 000FE7  
                              fsr1l 000FE1                                indf2 000FDF  
                              fsr2l 000FD9              __CFG_DSWDTOSC$T1OSCREF 000000  
                       main@msgtype 01DB                          i1_send_msg 0ECA  
                              pclat 000FFA                                prodh 000FF4  
                              prodl 000FF3               handle_start@data_read 009D  
                              start 00CE                          i2_recv_msg 0A06  
                        i2_send_msg 0D14           ToMainHigh_recvmsg@msgtype 01BA  
                  ??_uart_send_byte 01A2                      send_msg@length 01AE  
       __size_of_timer0_int_handler 0076                       __CFG_PLLDIV$3 000000  
                             ?_blip 0001                               ?_main 0001  
                             _T0CON 000FD5                               _T1CON 000FCD  
                   __end_of___lwmod 1202                          i1memcpy@d1 0001  
                             i2l301 0156                               i2l305 0188  
                             i2l333 04A0                               i2l327 0422  
                             i2l319 0300                               i2l289 0E7E  
                             i2l299 0492                          i1memcpy@s1 0003  
       FromMainHigh_recvmsg@msgtype 00B5                               _TMR0H 000FD7  
                             _TMR1H 000FCF                               _TMR0L 000FD6  
                             _TMR1L 000FCE                               _TRISB 000F93  
                             _TRISD 000F95                          i2memcpy@d1 009D  
                    __CFG_FCMEN$OFF 000000                          i2memcpy@s1 009F  
                      ?_init_queues 0001           __size_of_enter_sleep_mode 0006  
        ToMainLow_recvmsg@maxlength 01BE             timer0_lthread@msgbuffer 01A8  
                    __CFG_T1DIG$OFF 000000             i2c_configure_slave@addr 01A2  
                             tablat 000FF5          ?_uart_receive_buffer_empty 01A2  
                             status 000FD8                    __end_ofi1_memcpy 1434  
                  __end_ofi2_memcpy 13B4                     __initialization 1654  
                      __end_of_blip 182C                        __end_of_main 08E8  
                        _ReadTimer1 17DA         __size_of_timer1_int_handler 0034  
        __size_of_ToMainLow_recvmsg 0036          __size_of_ToMainLow_sendmsg 0022  
     __size_of_FromMainHigh_recvmsg 0036                      __CFG_OSC$HSPLL 000000  
     __size_of_FromMainHigh_sendmsg 002E                              ??_blip 01A2  
                            ??_main 01C5                     send_msg@msgtype 01AF  
                     __activetblptr 000002                     send_msg@tlength 01B3  
              __end_of_handle_start 0ECA                              _T1GCON 000F9A  
                            i1l2038 0F02                              i1l2434 14BE  
                            i1l1590 17AC                              i1l2650 0070  
                            i1l2644 0066                              i1l1598 16E4  
                            i1l1980 1406                              i2l3112 036E  
                            i2l3114 03B0                              i1l1986 1422  
                            i2l3140 0466                              i2l3052 014E  
                            i2l3118 03B8                              i2l3070 01B4  
                            i2l3046 0140                              i2l3160 0588  
                            i2l3152 0502                              i2l3072 01E0  
                            i2l3400 0FAA                          _OpenTimer0 1730  
                            i2l3146 04A4                              i2l3090 0272  
                            i2l3082 021A                          _OpenTimer1 1472  
                            i2l3174 0640                              i2l3406 0FB4  
                    __CFG_WDTEN$OFF 000000                              i2l3192 1266  
                            i2l3168 061A                              i2l3088 0232  
                            i2l3186 1062                              i2l2814 139E  
                            i2l2808 137E                              i2l2916 1464  
                            i2l2908 1446                              i2l2856 0D62  
                            i2l2880 0A66                              i2l2896 0B20  
                            i2l2994 0E9A                              i2l2996 0EB2  
                            _RCREG1 000FAF         __end_of_i2c_configure_slave 1730  
                     ??_SleepIfOkay 00A1                              _OSCCON 000FD3  
                            _SPBRG1 000FB0                              _SSPADD 000FC8  
                    __CFG_WPCFG$OFF 000000                              _SSPBUF 000FC9  
    __size_of_start_i2c_slave_reply 0104                              _TXREG1 000FAE  
                       ?i1_send_msg 000B       __end_of_start_i2c_slave_reply 0C28  
                timer0_lthread@tptr 01A2                      __CFG_WPDIS$OFF 000000  
                       ?i2_recv_msg 00A7                         ?i2_send_msg 00A7  
                  main@alex_counter 01C5                      __CFG_XINST$OFF 000000  
                   _i2c_int_handler 00D2                    OpenTimer0@config 01A2  
                            _ic_ptr 00CF                           ??___lwmod 01A6  
                     main@msgbuffer 01C6                    __end_of_init_i2c 113E  
                  OpenTimer1@config 01A4                              _memcpy 1314  
                            clear_0 165A                              clear_1 1666  
                            clear_2 1672                              main@ic 01DD  
                  __end_of_recv_msg 0A06         start_i2c_slave_reply@length 01A6  
                  __end_of_send_msg 0D14               timer0_int_handler@val 00BE  
           i2c_int_handler@i2c_data 00BD                              tblptrh 000FF7  
                            tblptrl 000FF6                              tblptru 000FF8  
                       init_queue@i 01A4            ToMainLow_recvmsg@msgtype 01BA  
              __size_of_in_high_int 0010          __end_of_uart_transmit_byte 1708  
                        __accesstop 0060             __end_of__initialization 1678  
        __end_of_ToMainHigh_recvmsg 1554          __end_of_ToMainHigh_sendmsg 16DE  
                   __CFG_IOL1WAY$ON 000000             ?_uart_send_buffer_empty 0001  
              __CFG_WPEND$PAGE_WPFP 000000         __end_of_init_timer1_lthread 17C8  
               __end_of_SleepIfOkay 12BE                      __pcstackCOMRAM 0001  
                       ?_ReadTimer1 0001                  __size_of_check_msg 0032  
                   __CFG_DSWDTPS$G2 000000           timer0_int_handler@msgtype 00BC  
               __size_ofi1_send_msg 00AA                           ?i1_memcpy 0001  
     __size_of_InterruptHandlerHigh 0FEA         __end_of_InterruptHandlerLow 00CE  
                         ?i2_memcpy 009D                       _ToMainHigh_MQ 016C  
               __size_ofi2_recv_msg 011E                    _enter_sleep_mode 182C  
               __size_ofi2_send_msg 00EC                timer1_lthread@length 01C0  
                     check_msg@qptr 009D                timer1_lthread@retval 01C4  
              __size_of_init_queues 0056                          __pbssBANK0 0060  
                        __pbssBANK1 0100                         ?_OpenTimer0 0001  
                       ?_OpenTimer1 01A2           uart_get_byte@return_value 01A2  
    __end_of_uart_send_buffer_empty 17B6             __end_of_i2c_int_handler 0646  
                timer1_lthread@tptr 01BC                   recv_msg@maxlength 01AE  
                   recv_msg@msgtype 01AF                     recv_msg@tlength 01B6  
             __size_of_handle_start 00CA                    WriteTimer0@timer 009F  
                           ?_memcpy 01A2                    WriteTimer1@timer 0003  
                     ??_WriteTimer0 009F                       ??_WriteTimer1 0003  
           __size_of_timer0_lthread 000E               __end_of_uart_get_byte 13F4  
           __size_of_timer1_lthread 005E                          ??i1_memcpy 0007  
                        ??i2_memcpy 00A3                             _SPBRGH1 000F7F  
                  i1send_msg@length 000D                             _SSPCON1 000FC6  
                           _SSPCON2 000FC5                             _SSPSTAT 000FC7  
               __size_of_ReadTimer1 0012                   __end_of_check_msg 1654  
                         ?_init_i2c 01A2                         _SleepIfOkay 1260  
       ??_uart_receive_buffer_empty 01A4                           ?_recv_msg 01AC  
                        _in_low_int 1434                        _handle_start 0E00  
                           __Hparam 0000                           ?_send_msg 01AC  
                           __Lparam 0000          __end_of_timer0_int_handler 1068  
                           ___lwmod 11A2                     __CFG_STVREN$OFF 000000  
                           __pcinit 1654                     __size_of_memcpy 0050  
                        _init_queue 113E                             __ramtop 0F00  
               __size_of_OpenTimer0 0026                 __size_of_OpenTimer1 003C  
                           __ptext0 0646                             __ptext1 15BE  
                           __ptext2 1756                             __ptext3 15F0  
                           __ptext4 13B4                             __ptext5 1068  
                           __ptext6 1202                             __ptext7 11A2  
                           __ptext8 1682                             __ptext9 0C28  
                         _T0CONbits 000FD5                   OpenTimer1@config1 01A2  
                         _T1CONbits 000FCD                 __end_of_WriteTimer0 17FE  
               __end_of_WriteTimer1 17DA                   _uart_receive_byte 14AE  
                    __pintcode_body 0F74        __end_of_FromMainHigh_recvmsg 158A  
              end_of_initialization 1678             timer1_lthread@msgbuffer 01C2  
      __end_of_FromMainHigh_sendmsg 16B0          FromMainHigh_sendmsg@length 01BB  
                           memcpy@d 01A8                  ?_uart_receive_byte 0001  
                           memcpy@n 01A6                             memcpy@s 01AA  
                        ??_init_i2c 01A4             __size_of_uart_configure 006C  
       i2c_int_handler@data_written 00BB                       __Lmediumconst 0000  
                           int_func 0F74                        ??i1_send_msg 0011  
                     ?_uart_lthread 01A2                    ?_i2c_int_handler 0001  
                      ??i2_recv_msg 00AE                          ??_recv_msg 01B3  
                      ??i2_send_msg 00AD                          ??_send_msg 01B2  
               ??_uart_receive_byte 0001          __end_of_timer1_int_handler 15BE  
                           postdec2 000FDD                             postinc0 000FEE  
                           postinc2 000FDE           ToMainHigh_sendmsg@msgtype 00B3  
         _uart_receive_buffer_empty 1756                           _PORTBbits 000F81  
                  __CFG_DSBOREN$OFF 000000             __size_of_uart_send_byte 0032  
                  __CFG_CPUDIV$OSC1 000000                  __end_ofi1_send_msg 0F74  
       FromMainHigh_sendmsg@msgtype 01B8                           _TRISBbits 000F93  
                         _TRISCbits 000F94           __end_of_uart_receive_byte 14E8  
                __end_ofi2_recv_msg 0B24                  __end_ofi2_send_msg 0E00  
            uart_send_byte@sendByte 01A2       FromMainHigh_recvmsg@maxlength 00B9  
          timer1_int_handler@result 001B                      ??_uart_lthread 01AA  
                 __CFG_WPFP$PAGE_63 000000                          main@length 01DC  
                       ?_in_low_int 009F               timer0_lthread@msgtype 01A4  
             _start_i2c_slave_reply 0B24                 __CFG_MSSP7B_EN$MSK7 000000  
      __size_of_i2c_configure_slave 0028            __end_of_enter_sleep_mode 1832  
                _uart_transmit_byte 16DE                        ??_ReadTimer1 0003  
                _ToMainHigh_recvmsg 151E                           i1memcpy@d 0007  
                _ToMainHigh_sendmsg 16B0                           i1memcpy@n 0005  
                         i1memcpy@s 0009                         _BAUDCONbits 000F7E  
                    _timer0_lthread 180E                         ?_init_queue 01A2  
                         i2memcpy@d 00A3                         _WriteTimer0 17EC  
                       _WriteTimer1 17C8                           i2memcpy@n 00A1  
                         i2memcpy@s 00A5                 ?_uart_transmit_byte 0001  
                    _timer1_lthread 1202                      __end_of_memcpy 1364  
                 _enable_interrupts 181C                    __CFG_DSWDTEN$OFF 000000  
               ?_ToMainHigh_recvmsg 01BA            i2c_int_handler@data_read 00C0  
               ?_ToMainHigh_sendmsg 00B3                  ?_enable_interrupts 0001  
               start_initialization 1654                       ??_in_high_int 009F  
                 __size_ofi1_memcpy 0040                   __size_ofi2_memcpy 0050  
               ??_enable_interrupts 01A2                        ??_OpenTimer0 01A2  
                      ??_OpenTimer1 01A3                  __end_of_ReadTimer1 17EC  
              ??_uart_transmit_byte 0001        __end_of_InterruptHandlerHigh 0FF2  
                        init_i2c@ic 01A2                ??_ToMainHigh_recvmsg 01BE  
              ??_ToMainHigh_sendmsg 00B6              __end_of_timer0_lthread 181C  
          i2c_int_handler@error_buf 00B8              __end_of_timer1_lthread 1260  
                  __CFG_LPT1OSC$OFF 000000           __end_of_enable_interrupts 1824  
                          ??_memcpy 01A8               timer1_lthread@msgtype 01BE  
              _FromMainHigh_recvmsg 1554                _FromMainHigh_sendmsg 1682  
      __size_of_init_timer1_lthread 0012                  __end_of_OpenTimer0 1756  
                __end_of_OpenTimer1 14AE            i2c_int_handler@msg_ready 00BF  
                       __pbssCOMRAM 002E                       ??_init_queues 01A5  
                     __pcstackBANK0 009D                       __pcstackBANK1 01A2  
               __size_of_in_low_int 003E          __size_of_uart_receive_byte 003A  
          start_i2c_slave_reply@msg 01A2            ToMainLow_sendmsg@msgtype 0017  
      __size_of_InterruptHandlerLow 00B6                 __end_of_in_high_int 180E  
                    _uart_configure 1068                        ?_SleepIfOkay 0001  
             ToMainLow_recvmsg@data 01BC                        _ToMainLow_MQ 0060  
               __size_of_init_queue 0064                           _check_msg 1622  
                         __pnvBANK0 00CF              ?_start_i2c_slave_reply 01A2  
                 __size_of_init_i2c 006A                        recv_msg@data 01B1  
                      recv_msg@qmsg 01B8                        recv_msg@slot 01B5  
                      recv_msg@qptr 01AC                   __size_of_recv_msg 011E  
                         __pintcode 0008                   __size_of_send_msg 00EC  
                   ?_timer0_lthread 01A2                            ?___lwmod 01A2  
             ?_FromMainHigh_recvmsg 00B5                     ?_timer1_lthread 01BC  
             ?_FromMainHigh_sendmsg 01B8                         __pintcodelo 0018  
            ToMainHigh_recvmsg@data 01BC                __end_of_uart_lthread 1622  
        i2c_int_handler@msg_to_send 00BE                   WriteTimer0@timer0 009D  
                    _uart_send_byte 15BE                  _timer0_int_handler 0FF2  
                 WriteTimer1@timer1 0001                __CFG_RTCOSC$T1OSCREF 000000  
               uart_lthread@msgtype 01A4               ToMainLow_sendmsg@data 0018  
__size_of_uart_receive_buffer_empty 0022              __end_of_uart_configure 10D4  
               ?_timer0_int_handler 0001                    uart_lthread@uptr 01A2  
               __end_of_init_queues 1314                            _LATDbits 000F8C  
                        ?_check_msg 009D                            _IPR1bits 000F9F  
                          _PIE1bits 000F9D              __size_of_uart_get_byte 0040  
                          _PIR1bits 000F9E              ToMainHigh_sendmsg@data 00B4  
                          _RCONbits 000FD0                    __CFG_WDTPS$32768 000000  
              ??_timer0_int_handler 00BA          __size_of_enable_interrupts 0008  
                 i1send_msg@msgtype 000E                   i1send_msg@tlength 0012  
            __end_of_uart_send_byte 15F0                timer0_lthread@length 01A6  
                _timer1_int_handler 158A                            i1_memcpy 13F4  
              _InterruptHandlerHigh 0008                            i2_memcpy 1364  
               _uart_receive_buffer 0096                timer0_lthread@msgval 01AA  
          FromMainHigh_recvmsg@data 00B7                    _uart_send_buffer 002F  
                       _in_high_int 17FE                        send_msg@data 01B0  
               _i2c_configure_slave 1708                        send_msg@qmsg 01B6  
                      send_msg@slot 01B5                        send_msg@qptr 01AC  
          ??_uart_send_buffer_empty 0003               uart_lthread@msgbuffer 01A8  
                   ?_uart_configure 0001                 ?_timer1_int_handler 0001  
 __end_of_uart_receive_buffer_empty 1778                            __Hparam0 0000  
                      ??_in_low_int 00A1                            __Lparam0 0000  
              ?_i2c_configure_slave 0001                   ?_enter_sleep_mode 0001  
            ??_FromMainHigh_recvmsg 00B9              ??_FromMainHigh_sendmsg 01BB  
              ??_timer1_int_handler 001B            __size_of_i2c_int_handler 0574  
                ??_enter_sleep_mode 009D                    __size_of___lwmod 0060  
                      ??_init_queue 01A4                        ?_WriteTimer0 009D  
                      ?_WriteTimer1 0001            FromMainHigh_sendmsg@data 01B9  
                   ?_uart_send_byte 0001             ToMainLow_sendmsg@length 001A  
                 main@t0thread_data 01D3                       _uart_get_byte 13B4  
             ?_InterruptHandlerHigh 0001                   i2send_msg@msgtype 00AA  
       ToMainHigh_recvmsg@maxlength 01BE                   i2send_msg@tlength 00AE  
           init_timer1_lthread@tptr 01A2                         _init_queues 12BE  
                __end_of_in_low_int 1472                            __ptext10 180E  
                          __ptext11 0B24                            __ptext20 151E  
                          __ptext12 17B6                            __ptext21 08E8  
                          __ptext13 12BE                          _T1GCONbits 000F9A  
                          __ptext30 17C8                            __ptext22 1314  
                          __ptext14 113E                            __ptext31 1778  
                          __ptext23 1472                            __ptext15 10D4  
                          __ptext40 00D2                            __ptext32 0ECA  
                          __ptext24 1730                            __ptext16 1708  
                          __ptext41 0E00                            __ptext33 13F4  
                          __ptext17 181C                            __ptext42 16B0  
                          __ptext34 17DA                            __ptext26 16DE  
                          __ptext18 1824                            __ptext43 0D14  
                          __ptext27 179A                            __ptext19 14E8  
                          __ptext44 1364                            __ptext36 0FF2  
                          __ptext28 14AE                            __ptext45 1260  
                          __ptext37 17EC                            __ptext29 158A  
                          __ptext46 1434                            __ptext38 1554  
                          __ptext47 17FE                            __ptext39 0A06  
                          __ptext48 182C                            __ptext49 1622  
                    i1send_msg@data 000F                      i1send_msg@qmsg 0015  
                    i1send_msg@slot 0014                      i1send_msg@qptr 000B  
                uart_lthread@length 01A6            timer0_int_handler@length 00BA  
                          _init_i2c 10D4                 _init_timer1_lthread 17B6  
                     __size_of_blip 0008                       __size_of_main 02A2  
                 main@t1thread_data 01D9                         ??_check_msg 009F  
                __end_of_init_queue 11A2                __size_of_SleepIfOkay 005E  
                          _recv_msg 08E8               ??_i2c_configure_slave 01A2  
                          _send_msg 0C28                      init_queue@qptr 01A2  
             __size_of_uart_lthread 0032                      i2recv_msg@data 00AC  
                    i2recv_msg@qmsg 00B3                      i2recv_msg@slot 00B0  
                    i2recv_msg@qptr 00A7                 _InterruptHandlerLow 0018  
              ?_init_timer1_lthread 01A2                      ?_uart_get_byte 0001  
                       _OSCTUNEbits 000F9B                          _INTCONbits 000FF2  
                          memcpy@d1 01A2                            memcpy@s1 01A4  
      i2c_int_handler@overrun_error 00BC     __size_of_uart_send_buffer_empty 001C  
                  i2send_msg@length 00A9                            intlevel1 0000  
                          intlevel2 0000                ?_InterruptHandlerLow 0001  
           ??_start_i2c_slave_reply 01A4                    ___lwmod@dividend 01A2  
       __size_of_uart_transmit_byte 002A                        _uart_lthread 15F0  
                        _RCSTA1bits 000FAC                       ?_handle_start 0001  
                  ??_timer0_lthread 01AA         __size_of_ToMainHigh_recvmsg 0036  
       __size_of_ToMainHigh_sendmsg 002E                          _OSCCONbits 000FD3  
                  ??_timer1_lthread 01C4            ToMainHigh_sendmsg@length 00B6  
             ??_init_timer1_lthread 01A4              ??_InterruptHandlerHigh 00C1  
                 _ToMainLow_recvmsg 14E8                   _ToMainLow_sendmsg 1778  
                main@last_reg_recvd 01D5                     ___lwmod@divisor 01A4  
                ?_ToMainLow_recvmsg 01BA                   ??_i2c_int_handler 00B7  
                   ___lwmod@counter 01A6                  ?_ToMainLow_sendmsg 0017  
                       _SSPCON1bits 000FC6                         _SSPCON2bits 000FC5  
                    i2send_msg@data 00AB               ??_InterruptHandlerLow 001D  
               ??_ToMainLow_recvmsg 01BE                      i2send_msg@qmsg 00B1  
                    i2send_msg@slot 00B0                      i2send_msg@qptr 00A7  
               ??_ToMainLow_sendmsg 001A                      ??_handle_start 009D  
